
./build/dac_tim.elf:     file format elf32-littlearm


Disassembly of section .text:

08000000 <vector_table>:
 8000000:	00 50 00 20 65 29 00 08 63 29 00 08 61 29 00 08     .P. e)..c)..a)..
 8000010:	61 29 00 08 61 29 00 08 61 29 00 08 00 00 00 00     a)..a)..a)......
	...
 800002c:	63 29 00 08 63 29 00 08 00 00 00 00 63 29 00 08     c)..c)......c)..
 800003c:	89 05 00 08 61 29 00 08 61 29 00 08 61 29 00 08     ....a)..a)..a)..
 800004c:	61 29 00 08 61 29 00 08 61 29 00 08 61 29 00 08     a)..a)..a)..a)..
 800005c:	61 29 00 08 61 29 00 08 61 29 00 08 61 29 00 08     a)..a)..a)..a)..
 800006c:	61 29 00 08 61 29 00 08 61 29 00 08 61 29 00 08     a)..a)..a)..a)..
 800007c:	61 29 00 08 61 29 00 08 61 29 00 08 61 29 00 08     a)..a)..a)..a)..
 800008c:	61 29 00 08 61 29 00 08 61 29 00 08 61 29 00 08     a)..a)..a)..a)..
 800009c:	61 29 00 08 61 29 00 08 61 29 00 08 61 29 00 08     a)..a)..a)..a)..
 80000ac:	61 29 00 08 51 01 00 08 61 29 00 08 61 29 00 08     a)..Q...a)..a)..
 80000bc:	61 29 00 08 61 29 00 08 61 29 00 08 61 29 00 08     a)..a)..a)..a)..
 80000cc:	61 29 00 08 61 29 00 08 61 29 00 08 61 29 00 08     a)..a)..a)..a)..
 80000dc:	61 29 00 08 61 29 00 08 61 29 00 08 61 29 00 08     a)..a)..a)..a)..
 80000ec:	61 29 00 08 61 29 00 08 61 29 00 08 61 29 00 08     a)..a)..a)..a)..
 80000fc:	61 29 00 08 61 29 00 08 61 29 00 08 61 29 00 08     a)..a)..a)..a)..
 800010c:	61 29 00 08 61 29 00 08 61 29 00 08 61 29 00 08     a)..a)..a)..a)..
 800011c:	61 29 00 08 61 29 00 08 61 29 00 08 61 29 00 08     a)..a)..a)..a)..
 800012c:	61 29 00 08 61 29 00 08 61 29 00 08 61 29 00 08     a)..a)..a)..a)..
 800013c:	61 29 00 08 61 29 00 08 61 29 00 08 61 29 00 08     a)..a)..a)..a)..
 800014c:	61 29 00 08                                         a)..

08000150 <tim2_isr>:
uint8_t floatToChar(float);
void updateOutput(uint8_t);
float calculaIncremento(uint16_t,uint8_t);

void tim2_isr(void)
{
 8000150:	b508      	push	{r3, lr}
	//gpio_toggle(GPIOC, GPIO13); /* LED on/off. */
	flag_amostra = 1; //Indica que é o momento de amostrar
 8000152:	4b07      	ldr	r3, [pc, #28]	; (8000170 <tim2_isr+0x20>)
 8000154:	2201      	movs	r2, #1
 8000156:	601a      	str	r2, [r3, #0]
	/* Manutenção do interrupt */
	timer_clear_flag(TIM2,TIM_SR_CC1IF); /* Clear interrrupt flag. */
 8000158:	2102      	movs	r1, #2
 800015a:	f04f 4080 	mov.w	r0, #1073741824	; 0x40000000
 800015e:	f002 fbd8 	bl	8002912 <timer_clear_flag>
	timer_set_counter(TIM2, 0); /* Set counter back to the beginning */
 8000162:	2100      	movs	r1, #0
 8000164:	f04f 4080 	mov.w	r0, #1073741824	; 0x40000000
 8000168:	f002 fbf8 	bl	800295c <timer_set_counter>
}
 800016c:	bd08      	pop	{r3, pc}
 800016e:	bf00      	nop
 8000170:	2000000c 	.word	0x2000000c

08000174 <gpio_setup>:


void gpio_setup(void) {
 8000174:	b538      	push	{r3, r4, r5, lr}

	/* Enable clock. */
	rcc_periph_clock_enable(RCC_GPIOA);
 8000176:	f240 3002 	movw	r0, #770	; 0x302
 800017a:	f002 fbb9 	bl	80028f0 <rcc_periph_clock_enable>
	rcc_periph_clock_enable(RCC_GPIOB);
 800017e:	f240 3003 	movw	r0, #771	; 0x303
 8000182:	f002 fbb5 	bl	80028f0 <rcc_periph_clock_enable>
	rcc_periph_clock_enable(RCC_GPIOC);
 8000186:	f44f 7041 	mov.w	r0, #772	; 0x304
 800018a:	f002 fbb1 	bl	80028f0 <rcc_periph_clock_enable>
	/* Set GPIO13 (in GPIO port C) to 'output push-pull'. */
	gpio_set_mode(GPIOC,GPIO_MODE_OUTPUT_2_MHZ,
 800018e:	4c36      	ldr	r4, [pc, #216]	; (8000268 <gpio_setup+0xf4>)
 8000190:	f44f 5300 	mov.w	r3, #8192	; 0x2000
 8000194:	2200      	movs	r2, #0
 8000196:	2102      	movs	r1, #2
 8000198:	4620      	mov	r0, r4
 800019a:	f002 fa6d 	bl	8002678 <gpio_set_mode>
		      GPIO_CNF_OUTPUT_PUSHPULL,GPIO13);
	gpio_set(GPIOC,GPIO13);
 800019e:	f44f 5100 	mov.w	r1, #8192	; 0x2000
 80001a2:	4620      	mov	r0, r4
 80001a4:	f002 fa97 	bl	80026d6 <gpio_set>

	/* Configurações de saída */
	gpio_set_mode(outPort0, GPIO_MODE_OUTPUT_2_MHZ, GPIO_CNF_OUTPUT_PUSHPULL, outPin0);
 80001a8:	4d30      	ldr	r5, [pc, #192]	; (800026c <gpio_setup+0xf8>)
 80001aa:	f44f 7300 	mov.w	r3, #512	; 0x200
 80001ae:	2200      	movs	r2, #0
 80001b0:	2102      	movs	r1, #2
 80001b2:	4628      	mov	r0, r5
 80001b4:	f002 fa60 	bl	8002678 <gpio_set_mode>
	gpio_set_mode(outPort1, GPIO_MODE_OUTPUT_2_MHZ, GPIO_CNF_OUTPUT_PUSHPULL, outPin1);
 80001b8:	f44f 6380 	mov.w	r3, #1024	; 0x400
 80001bc:	2200      	movs	r2, #0
 80001be:	2102      	movs	r1, #2
 80001c0:	4628      	mov	r0, r5
 80001c2:	f002 fa59 	bl	8002678 <gpio_set_mode>
	gpio_set_mode(outPort2, GPIO_MODE_OUTPUT_2_MHZ, GPIO_CNF_OUTPUT_PUSHPULL, outPin2);
 80001c6:	f44f 6300 	mov.w	r3, #2048	; 0x800
 80001ca:	2200      	movs	r2, #0
 80001cc:	2102      	movs	r1, #2
 80001ce:	4628      	mov	r0, r5
 80001d0:	f002 fa52 	bl	8002678 <gpio_set_mode>
	gpio_set_mode(outPort3, GPIO_MODE_OUTPUT_2_MHZ, GPIO_CNF_OUTPUT_PUSHPULL, outPin3);
 80001d4:	f44f 5380 	mov.w	r3, #4096	; 0x1000
 80001d8:	2200      	movs	r2, #0
 80001da:	2102      	movs	r1, #2
 80001dc:	4628      	mov	r0, r5
 80001de:	f002 fa4b 	bl	8002678 <gpio_set_mode>
	gpio_set_mode(outPort4, GPIO_MODE_OUTPUT_2_MHZ, GPIO_CNF_OUTPUT_PUSHPULL, outPin4);
 80001e2:	f5a4 6480 	sub.w	r4, r4, #1024	; 0x400
 80001e6:	2340      	movs	r3, #64	; 0x40
 80001e8:	2200      	movs	r2, #0
 80001ea:	2102      	movs	r1, #2
 80001ec:	4620      	mov	r0, r4
 80001ee:	f002 fa43 	bl	8002678 <gpio_set_mode>
	gpio_set_mode(outPort5, GPIO_MODE_OUTPUT_2_MHZ, GPIO_CNF_OUTPUT_PUSHPULL, outPin5);
 80001f2:	2380      	movs	r3, #128	; 0x80
 80001f4:	2200      	movs	r2, #0
 80001f6:	2102      	movs	r1, #2
 80001f8:	4620      	mov	r0, r4
 80001fa:	f002 fa3d 	bl	8002678 <gpio_set_mode>
	gpio_set_mode(outPort6, GPIO_MODE_OUTPUT_2_MHZ, GPIO_CNF_OUTPUT_PUSHPULL, outPin6);
 80001fe:	f44f 7380 	mov.w	r3, #256	; 0x100
 8000202:	2200      	movs	r2, #0
 8000204:	2102      	movs	r1, #2
 8000206:	4620      	mov	r0, r4
 8000208:	f002 fa36 	bl	8002678 <gpio_set_mode>
	gpio_set_mode(outPort7, GPIO_MODE_OUTPUT_2_MHZ, GPIO_CNF_OUTPUT_PUSHPULL, outPin7);
 800020c:	f44f 7300 	mov.w	r3, #512	; 0x200
 8000210:	2200      	movs	r2, #0
 8000212:	2102      	movs	r1, #2
 8000214:	4620      	mov	r0, r4
 8000216:	f002 fa2f 	bl	8002678 <gpio_set_mode>
	
	/* Inicializando estado da saída */
	gpio_set(outPort0, outPin0);
 800021a:	f44f 7100 	mov.w	r1, #512	; 0x200
 800021e:	4628      	mov	r0, r5
 8000220:	f002 fa59 	bl	80026d6 <gpio_set>
	gpio_set(outPort1, outPin1);
 8000224:	f44f 6180 	mov.w	r1, #1024	; 0x400
 8000228:	4628      	mov	r0, r5
 800022a:	f002 fa54 	bl	80026d6 <gpio_set>
	gpio_set(outPort2, outPin2);
 800022e:	f44f 6100 	mov.w	r1, #2048	; 0x800
 8000232:	4628      	mov	r0, r5
 8000234:	f002 fa4f 	bl	80026d6 <gpio_set>
	gpio_set(outPort3, outPin3);
 8000238:	f44f 5180 	mov.w	r1, #4096	; 0x1000
 800023c:	4628      	mov	r0, r5
 800023e:	f002 fa4a 	bl	80026d6 <gpio_set>
	gpio_set(outPort4, outPin4);
 8000242:	2140      	movs	r1, #64	; 0x40
 8000244:	4620      	mov	r0, r4
 8000246:	f002 fa46 	bl	80026d6 <gpio_set>
	gpio_set(outPort5, outPin5);
 800024a:	2180      	movs	r1, #128	; 0x80
 800024c:	4620      	mov	r0, r4
 800024e:	f002 fa42 	bl	80026d6 <gpio_set>
	gpio_set(outPort6, outPin6);
 8000252:	f44f 7180 	mov.w	r1, #256	; 0x100
 8000256:	4620      	mov	r0, r4
 8000258:	f002 fa3d 	bl	80026d6 <gpio_set>
	gpio_set(outPort7, outPin7);
 800025c:	f44f 7100 	mov.w	r1, #512	; 0x200
 8000260:	4620      	mov	r0, r4
 8000262:	f002 fa38 	bl	80026d6 <gpio_set>

}
 8000266:	bd38      	pop	{r3, r4, r5, pc}
 8000268:	40011000 	.word	0x40011000
 800026c:	40010800 	.word	0x40010800

08000270 <tim2_setup>:
void tim2_setup(void){
 8000270:	b508      	push	{r3, lr}
	
	//Configurado para 80 de frequência de atualização - 12.5us de taxa de amostragem	

	rcc_periph_clock_enable(RCC_TIM2);
 8000272:	f44f 7060 	mov.w	r0, #896	; 0x380
 8000276:	f002 fb3b 	bl	80028f0 <rcc_periph_clock_enable>
	timer_set_mode(TIM2, TIM_CR1_CKD_CK_INT, TIM_CR1_CMS_EDGE, TIM_CR1_DIR_UP);
 800027a:	2300      	movs	r3, #0
 800027c:	461a      	mov	r2, r3
 800027e:	4619      	mov	r1, r3
 8000280:	f04f 4080 	mov.w	r0, #1073741824	; 0x40000000
 8000284:	f002 fb48 	bl	8002918 <timer_set_mode>
	timer_set_prescaler(TIM2, 72000000/800000); // frequencia do tick é o denominador
 8000288:	215a      	movs	r1, #90	; 0x5a
 800028a:	f04f 4080 	mov.w	r0, #1073741824	; 0x40000000
 800028e:	f002 fb51 	bl	8002934 <timer_set_prescaler>
	timer_set_period(TIM2, 10); // quantos ticks dão um período
 8000292:	210a      	movs	r1, #10
 8000294:	f04f 4080 	mov.w	r0, #1073741824	; 0x40000000
 8000298:	f002 fb4e 	bl	8002938 <timer_set_period>
	timer_set_oc_value(TIM2, TIM_OC1, 10); //contagem até o período p/ trigar o interrupt
 800029c:	220a      	movs	r2, #10
 800029e:	2100      	movs	r1, #0
 80002a0:	f04f 4080 	mov.w	r0, #1073741824	; 0x40000000
 80002a4:	f002 fb4a 	bl	800293c <timer_set_oc_value>
	timer_enable_irq(TIM2, TIM_DIER_CC1IE);
 80002a8:	2102      	movs	r1, #2
 80002aa:	f04f 4080 	mov.w	r0, #1073741824	; 0x40000000
 80002ae:	f002 fb2c 	bl	800290a <timer_enable_irq>

//NVIC
	
	nvic_enable_irq(NVIC_TIM2_IRQ);
 80002b2:	201c      	movs	r0, #28
 80002b4:	f002 fbc8 	bl	8002a48 <nvic_enable_irq>
	nvic_set_priority(NVIC_TIM2_IRQ,1);
 80002b8:	2101      	movs	r1, #1
 80002ba:	201c      	movs	r0, #28
 80002bc:	f002 fbd2 	bl	8002a64 <nvic_set_priority>

	timer_enable_counter(TIM2);	
 80002c0:	f04f 4080 	mov.w	r0, #1073741824	; 0x40000000
 80002c4:	f002 fb31 	bl	800292a <timer_enable_counter>
}
 80002c8:	bd08      	pop	{r3, pc}
	...

080002cc <floatToChar>:

uint8_t floatToChar(float sinFloat)
{
 80002cc:	b508      	push	{r3, lr}
	//sinFloat entra aqui entre -1 e 1 e sai entre 0 e 255
	uint8_t out = (uint8_t)(255*(sinFloat+1)/2);
 80002ce:	f04f 517e 	mov.w	r1, #1065353216	; 0x3f800000
 80002d2:	f001 fee3 	bl	800209c <__addsf3>
 80002d6:	4905      	ldr	r1, [pc, #20]	; (80002ec <floatToChar+0x20>)
 80002d8:	f001 ffe8 	bl	80022ac <__aeabi_fmul>
 80002dc:	f04f 517c 	mov.w	r1, #1056964608	; 0x3f000000
 80002e0:	f001 ffe4 	bl	80022ac <__aeabi_fmul>
 80002e4:	f002 f9a8 	bl	8002638 <__aeabi_f2uiz>
	return out;
}
 80002e8:	b2c0      	uxtb	r0, r0
 80002ea:	bd08      	pop	{r3, pc}
 80002ec:	437f0000 	.word	0x437f0000

080002f0 <updateOutput>:


void updateOutput(uint8_t sinChar)
{
 80002f0:	b510      	push	{r4, lr}
 80002f2:	4604      	mov	r4, r0
	if(sinChar&(1<<0))
 80002f4:	f010 0f01 	tst.w	r0, #1
 80002f8:	d03b      	beq.n	8000372 <updateOutput+0x82>
		gpio_set(outPort0, outPin0);
 80002fa:	f44f 7100 	mov.w	r1, #512	; 0x200
 80002fe:	4834      	ldr	r0, [pc, #208]	; (80003d0 <updateOutput+0xe0>)
 8000300:	f002 f9e9 	bl	80026d6 <gpio_set>
	else	
		gpio_clear(outPort0, outPin0);

	if(sinChar&(1<<1))
 8000304:	f014 0f02 	tst.w	r4, #2
 8000308:	d039      	beq.n	800037e <updateOutput+0x8e>
		gpio_set(outPort1, outPin1);
 800030a:	f44f 6180 	mov.w	r1, #1024	; 0x400
 800030e:	4830      	ldr	r0, [pc, #192]	; (80003d0 <updateOutput+0xe0>)
 8000310:	f002 f9e1 	bl	80026d6 <gpio_set>
	else	
		gpio_clear(outPort1, outPin1);

	if(sinChar&(1<<2))
 8000314:	f014 0f04 	tst.w	r4, #4
 8000318:	d037      	beq.n	800038a <updateOutput+0x9a>
		gpio_set(outPort2, outPin2);
 800031a:	f44f 6100 	mov.w	r1, #2048	; 0x800
 800031e:	482c      	ldr	r0, [pc, #176]	; (80003d0 <updateOutput+0xe0>)
 8000320:	f002 f9d9 	bl	80026d6 <gpio_set>
	else	
		gpio_clear(outPort2, outPin2);

	if(sinChar&(1<<3))
 8000324:	f014 0f08 	tst.w	r4, #8
 8000328:	d035      	beq.n	8000396 <updateOutput+0xa6>
		gpio_set(outPort3, outPin3);
 800032a:	f44f 5180 	mov.w	r1, #4096	; 0x1000
 800032e:	4828      	ldr	r0, [pc, #160]	; (80003d0 <updateOutput+0xe0>)
 8000330:	f002 f9d1 	bl	80026d6 <gpio_set>
	else	
		gpio_clear(outPort3, outPin3);

	if(sinChar&(1<<4))
 8000334:	f014 0f10 	tst.w	r4, #16
 8000338:	d033      	beq.n	80003a2 <updateOutput+0xb2>
		gpio_set(outPort4, outPin4);
 800033a:	2140      	movs	r1, #64	; 0x40
 800033c:	4825      	ldr	r0, [pc, #148]	; (80003d4 <updateOutput+0xe4>)
 800033e:	f002 f9ca 	bl	80026d6 <gpio_set>
	else	
		gpio_clear(outPort4, outPin4);

	if(sinChar&(1<<5))
 8000342:	f014 0f20 	tst.w	r4, #32
 8000346:	d031      	beq.n	80003ac <updateOutput+0xbc>
		gpio_set(outPort5, outPin5);
 8000348:	2180      	movs	r1, #128	; 0x80
 800034a:	4822      	ldr	r0, [pc, #136]	; (80003d4 <updateOutput+0xe4>)
 800034c:	f002 f9c3 	bl	80026d6 <gpio_set>
	else	
		gpio_clear(outPort5, outPin5);

	if(sinChar&(1<<6))
 8000350:	f014 0f40 	tst.w	r4, #64	; 0x40
 8000354:	d02f      	beq.n	80003b6 <updateOutput+0xc6>
		gpio_set(outPort6, outPin6);
 8000356:	f44f 7180 	mov.w	r1, #256	; 0x100
 800035a:	481e      	ldr	r0, [pc, #120]	; (80003d4 <updateOutput+0xe4>)
 800035c:	f002 f9bb 	bl	80026d6 <gpio_set>
	else	
		gpio_clear(outPort6, outPin6);

	if(sinChar&(1<<7))
 8000360:	f014 0f80 	tst.w	r4, #128	; 0x80
 8000364:	d12d      	bne.n	80003c2 <updateOutput+0xd2>
		gpio_set(outPort7, outPin7);
	else	
		gpio_clear(outPort7, outPin7);
 8000366:	f44f 7100 	mov.w	r1, #512	; 0x200
 800036a:	481a      	ldr	r0, [pc, #104]	; (80003d4 <updateOutput+0xe4>)
 800036c:	f002 f9b5 	bl	80026da <gpio_clear>

}
 8000370:	bd10      	pop	{r4, pc}
		gpio_clear(outPort0, outPin0);
 8000372:	f44f 7100 	mov.w	r1, #512	; 0x200
 8000376:	4816      	ldr	r0, [pc, #88]	; (80003d0 <updateOutput+0xe0>)
 8000378:	f002 f9af 	bl	80026da <gpio_clear>
 800037c:	e7c2      	b.n	8000304 <updateOutput+0x14>
		gpio_clear(outPort1, outPin1);
 800037e:	f44f 6180 	mov.w	r1, #1024	; 0x400
 8000382:	4813      	ldr	r0, [pc, #76]	; (80003d0 <updateOutput+0xe0>)
 8000384:	f002 f9a9 	bl	80026da <gpio_clear>
 8000388:	e7c4      	b.n	8000314 <updateOutput+0x24>
		gpio_clear(outPort2, outPin2);
 800038a:	f44f 6100 	mov.w	r1, #2048	; 0x800
 800038e:	4810      	ldr	r0, [pc, #64]	; (80003d0 <updateOutput+0xe0>)
 8000390:	f002 f9a3 	bl	80026da <gpio_clear>
 8000394:	e7c6      	b.n	8000324 <updateOutput+0x34>
		gpio_clear(outPort3, outPin3);
 8000396:	f44f 5180 	mov.w	r1, #4096	; 0x1000
 800039a:	480d      	ldr	r0, [pc, #52]	; (80003d0 <updateOutput+0xe0>)
 800039c:	f002 f99d 	bl	80026da <gpio_clear>
 80003a0:	e7c8      	b.n	8000334 <updateOutput+0x44>
		gpio_clear(outPort4, outPin4);
 80003a2:	2140      	movs	r1, #64	; 0x40
 80003a4:	480b      	ldr	r0, [pc, #44]	; (80003d4 <updateOutput+0xe4>)
 80003a6:	f002 f998 	bl	80026da <gpio_clear>
 80003aa:	e7ca      	b.n	8000342 <updateOutput+0x52>
		gpio_clear(outPort5, outPin5);
 80003ac:	2180      	movs	r1, #128	; 0x80
 80003ae:	4809      	ldr	r0, [pc, #36]	; (80003d4 <updateOutput+0xe4>)
 80003b0:	f002 f993 	bl	80026da <gpio_clear>
 80003b4:	e7cc      	b.n	8000350 <updateOutput+0x60>
		gpio_clear(outPort6, outPin6);
 80003b6:	f44f 7180 	mov.w	r1, #256	; 0x100
 80003ba:	4806      	ldr	r0, [pc, #24]	; (80003d4 <updateOutput+0xe4>)
 80003bc:	f002 f98d 	bl	80026da <gpio_clear>
 80003c0:	e7ce      	b.n	8000360 <updateOutput+0x70>
		gpio_set(outPort7, outPin7);
 80003c2:	f44f 7100 	mov.w	r1, #512	; 0x200
 80003c6:	4803      	ldr	r0, [pc, #12]	; (80003d4 <updateOutput+0xe4>)
 80003c8:	f002 f985 	bl	80026d6 <gpio_set>
 80003cc:	e7d0      	b.n	8000370 <updateOutput+0x80>
 80003ce:	bf00      	nop
 80003d0:	40010800 	.word	0x40010800
 80003d4:	40010c00 	.word	0x40010c00

080003d8 <main>:
	return 1000000/(pontos*freq); // Em us
}


int main(void)
{
 80003d8:	e92d 4ff0 	stmdb	sp!, {r4, r5, r6, r7, r8, r9, sl, fp, lr}
 80003dc:	b093      	sub	sp, #76	; 0x4c
	rcc_clock_setup_in_hse_8mhz_out_72mhz(); 
 80003de:	f002 fa41 	bl	8002864 <rcc_clock_setup_in_hse_8mhz_out_72mhz>

	gpio_setup();
 80003e2:	f7ff fec7 	bl	8000174 <gpio_setup>
	tim2_setup();
 80003e6:	f7ff ff43 	bl	8000270 <tim2_setup>
	time_init(); //Pra usar a biblioteca de delays
 80003ea:	f000 f8b5 	bl	8000558 <time_init>
	delay_ms(20);
 80003ee:	2014      	movs	r0, #20
 80003f0:	f000 f8a8 	bl	8000544 <delay_ms>
	int dir = 1; //Direção de mudança da frequência


	int i; //Iterador para gerar o seno
	int cont = 0; //Contagem de pontos do seno_tabela considerados
	for (i=0;i<qtd_pontos;i++) //Gerando o seno - so precisa ocorrer uma vez
 80003f4:	f10d 0407 	add.w	r4, sp, #7
 80003f8:	f10d 0a47 	add.w	sl, sp, #71	; 0x47
	{
		seno_tabela[i] = floatToChar(sin(M_2PI*i/qtd_pontos));
 80003fc:	ab12      	add	r3, sp, #72	; 0x48
 80003fe:	f1c3 0541 	rsb	r5, r3, #65	; 0x41
 8000402:	f20f 1914 	addw	r9, pc, #276	; 0x114
 8000406:	e9d9 8900 	ldrd	r8, r9, [r9]
 800040a:	2600      	movs	r6, #0
 800040c:	4f44      	ldr	r7, [pc, #272]	; (8000520 <main+0x148>)
 800040e:	1928      	adds	r0, r5, r4
 8000410:	f001 fcd4 	bl	8001dbc <__aeabi_i2d>
 8000414:	4642      	mov	r2, r8
 8000416:	464b      	mov	r3, r9
 8000418:	f001 fa54 	bl	80018c4 <__aeabi_dmul>
 800041c:	4632      	mov	r2, r6
 800041e:	463b      	mov	r3, r7
 8000420:	f001 fa50 	bl	80018c4 <__aeabi_dmul>
 8000424:	f000 f8ba 	bl	800059c <sin>
 8000428:	f001 fde2 	bl	8001ff0 <__aeabi_d2f>
 800042c:	f7ff ff4e 	bl	80002cc <floatToChar>
 8000430:	f804 0f01 	strb.w	r0, [r4, #1]!
	for (i=0;i<qtd_pontos;i++) //Gerando o seno - so precisa ocorrer uma vez
 8000434:	4554      	cmp	r4, sl
 8000436:	d1ea      	bne.n	800040e <main+0x36>
	}
	i = 0;


	gpio_clear(GPIOC,GPIO13);
 8000438:	f44f 5100 	mov.w	r1, #8192	; 0x2000
 800043c:	4839      	ldr	r0, [pc, #228]	; (8000524 <main+0x14c>)
 800043e:	f002 f94c 	bl	80026da <gpio_clear>
	float t_us= 0; //Tempo atual em us
	float t_ms = 0; //Tempo atual em ms


	/* Começo do programa */
	delay_ms(10);
 8000442:	200a      	movs	r0, #10
 8000444:	f000 f87e 	bl	8000544 <delay_ms>
	float t_ms = 0; //Tempo atual em ms
 8000448:	2300      	movs	r3, #0
 800044a:	9301      	str	r3, [sp, #4]
	float t_us= 0; //Tempo atual em us
 800044c:	461e      	mov	r6, r3
	float T_incremento = calculaIncremento(freq_alvo,qtd_pontos);
 800044e:	f8df 90d8 	ldr.w	r9, [pc, #216]	; 8000528 <main+0x150>
	uint16_t freq_alvo = freq_inicial;
 8000452:	f04f 081e 	mov.w	r8, #30
	int cont = 0; //Contagem de pontos do seno_tabela considerados
 8000456:	2700      	movs	r7, #0
	int dir = 1; //Direção de mudança da frequência
 8000458:	f04f 0b01 	mov.w	fp, #1
	uint8_t saida_char = (uint8_t)0; //Valor do seno após conversão de float pra inteiro
 800045c:	46ba      	mov	sl, r7
	while(1)
	{
		if (flag_amostra == 1) //Bateu o timer de amostra, atualizo o valor do seno
 800045e:	4d33      	ldr	r5, [pc, #204]	; (800052c <main+0x154>)
 8000460:	e019      	b.n	8000496 <main+0xbe>
				{
					freq_alvo = freq_alvo + dir * f_incremento;
					if (freq_alvo>freq_final)
					{
						dir = -1;
						freq_alvo = freq_final;
 8000462:	f44f 787a 	mov.w	r8, #1000	; 0x3e8
						dir = -1;
 8000466:	f04f 3bff 	mov.w	fp, #4294967295	; 0xffffffff
	return 1000000/(pontos*freq); // Em us
 800046a:	ea4f 1388 	mov.w	r3, r8, lsl #6
 800046e:	4830      	ldr	r0, [pc, #192]	; (8000530 <main+0x158>)
 8000470:	fb90 f0f3 	sdiv	r0, r0, r3
 8000474:	f001 fec6 	bl	8002204 <__aeabi_i2f>
 8000478:	4681      	mov	r9, r0
						dir = 1;
						freq_alvo = freq_inicial;
					}

					T_incremento = calculaIncremento(freq_alvo,qtd_pontos);
					t_ms = 0;
 800047a:	2300      	movs	r3, #0
 800047c:	9301      	str	r3, [sp, #4]
				}
				t_us = 0;
 800047e:	461e      	mov	r6, r3
				cont = 0;
 8000480:	2700      	movs	r7, #0
				i = 0;
			}		

			/* Saída pro conversor D/A */
			updateOutput(saida_char);
 8000482:	4650      	mov	r0, sl
 8000484:	f7ff ff34 	bl	80002f0 <updateOutput>
			gpio_toggle(GPIOC, GPIO13);
 8000488:	f44f 5100 	mov.w	r1, #8192	; 0x2000
 800048c:	4825      	ldr	r0, [pc, #148]	; (8000524 <main+0x14c>)
 800048e:	f002 f927 	bl	80026e0 <gpio_toggle>

			flag_amostra = 0; //Fim da amostragem
 8000492:	2300      	movs	r3, #0
 8000494:	602b      	str	r3, [r5, #0]
		if (flag_amostra == 1) //Bateu o timer de amostra, atualizo o valor do seno
 8000496:	682c      	ldr	r4, [r5, #0]
 8000498:	2c01      	cmp	r4, #1
 800049a:	d1fc      	bne.n	8000496 <main+0xbe>
			t_us = t_us+12.5; //Incremento de um tick em us
 800049c:	4925      	ldr	r1, [pc, #148]	; (8000534 <main+0x15c>)
 800049e:	4630      	mov	r0, r6
 80004a0:	f001 fdfc 	bl	800209c <__addsf3>
 80004a4:	4606      	mov	r6, r0
			if (t_us>=cont*T_incremento) // Se for hora de atualizar o seno, procura novo valor. se nao repete o mesmo
 80004a6:	4638      	mov	r0, r7
 80004a8:	f001 feac 	bl	8002204 <__aeabi_i2f>
 80004ac:	4649      	mov	r1, r9
 80004ae:	f001 fefd 	bl	80022ac <__aeabi_fmul>
 80004b2:	4631      	mov	r1, r6
 80004b4:	f002 f8a2 	bl	80025fc <__aeabi_fcmple>
 80004b8:	b120      	cbz	r0, 80004c4 <main+0xec>
				saida_char = seno_tabela[cont];
 80004ba:	ab12      	add	r3, sp, #72	; 0x48
 80004bc:	443b      	add	r3, r7
 80004be:	f813 ac40 	ldrb.w	sl, [r3, #-64]
				cont++;
 80004c2:	3701      	adds	r7, #1
			if (cont==qtd_pontos) // Se o tempo atual for igual ao período, o seno se repete
 80004c4:	2f40      	cmp	r7, #64	; 0x40
 80004c6:	d1dc      	bne.n	8000482 <main+0xaa>
				t_ms = t_ms+64*T_incremento/1000; //Incremento o tempo atual em ms
 80004c8:	f04f 4185 	mov.w	r1, #1115684864	; 0x42800000
 80004cc:	4648      	mov	r0, r9
 80004ce:	f001 feed 	bl	80022ac <__aeabi_fmul>
 80004d2:	4919      	ldr	r1, [pc, #100]	; (8000538 <main+0x160>)
 80004d4:	f001 ff9e 	bl	8002414 <__aeabi_fdiv>
 80004d8:	4601      	mov	r1, r0
 80004da:	9801      	ldr	r0, [sp, #4]
 80004dc:	f001 fdde 	bl	800209c <__addsf3>
 80004e0:	9001      	str	r0, [sp, #4]
				if (t_ms>=t_ms_att_f)
 80004e2:	4916      	ldr	r1, [pc, #88]	; (800053c <main+0x164>)
 80004e4:	f002 f894 	bl	8002610 <__aeabi_fcmpge>
 80004e8:	b180      	cbz	r0, 800050c <main+0x134>
					freq_alvo = freq_alvo + dir * f_incremento;
 80004ea:	eb0b 03cb 	add.w	r3, fp, fp, lsl #3
 80004ee:	eb0b 0343 	add.w	r3, fp, r3, lsl #1
 80004f2:	4498      	add	r8, r3
 80004f4:	fa1f f888 	uxth.w	r8, r8
					if (freq_alvo>freq_final)
 80004f8:	f5b8 7f7a 	cmp.w	r8, #1000	; 0x3e8
 80004fc:	d8b1      	bhi.n	8000462 <main+0x8a>
					else if(freq_alvo<freq_inicial)
 80004fe:	f1b8 0f1d 	cmp.w	r8, #29
 8000502:	d8b2      	bhi.n	800046a <main+0x92>
						dir = 1;
 8000504:	46a3      	mov	fp, r4
						freq_alvo = freq_inicial;
 8000506:	f04f 081e 	mov.w	r8, #30
 800050a:	e7ae      	b.n	800046a <main+0x92>
				t_us = 0;
 800050c:	2600      	movs	r6, #0
				cont = 0;
 800050e:	2700      	movs	r7, #0
 8000510:	e7b7      	b.n	8000482 <main+0xaa>
 8000512:	bf00      	nop
 8000514:	f3af 8000 	nop.w
 8000518:	54442eea 	.word	0x54442eea
 800051c:	401921fb 	.word	0x401921fb
 8000520:	3f900000 	.word	0x3f900000
 8000524:	40011000 	.word	0x40011000
 8000528:	44020000 	.word	0x44020000
 800052c:	2000000c 	.word	0x2000000c
 8000530:	000f4240 	.word	0x000f4240
 8000534:	41480000 	.word	0x41480000
 8000538:	447a0000 	.word	0x447a0000
 800053c:	42c80000 	.word	0x42c80000

08000540 <sys_tick_handler_v>:
static void systick_config(uint32_t ticks);
void sys_tick_handler_v(void) __attribute__ ((weak, alias("__empty")));

static void __empty(void) {
	// Empty
}
 8000540:	4770      	bx	lr
	...

08000544 <delay_ms>:
void delay_ms(uint32_t time_ms);
void delay_us(uint32_t time_us);
void sys_tick_handler_v(void);

static inline uint32_t millis(void){
    return milliseconds;
 8000544:	4b03      	ldr	r3, [pc, #12]	; (8000554 <delay_ms+0x10>)
 8000546:	6819      	ldr	r1, [r3, #0]
 8000548:	461a      	mov	r2, r3
 800054a:	6813      	ldr	r3, [r2, #0]
//


void delay_ms(uint32_t time_ms){
	uint32_t currTime = millis();
	while((millis() - currTime) < time_ms);
 800054c:	1a5b      	subs	r3, r3, r1
 800054e:	4283      	cmp	r3, r0
 8000550:	d3fb      	bcc.n	800054a <delay_ms+0x6>
}
 8000552:	4770      	bx	lr
 8000554:	20000010 	.word	0x20000010

08000558 <time_init>:
void delay_us(uint32_t time_us){
	uint32_t currTime = micros();
	while((micros() - currTime) < time_us);
}

void time_init(){
 8000558:	b510      	push	{r4, lr}
	systick_config(rcc_ahb_frequency/1000); 
 800055a:	4b09      	ldr	r3, [pc, #36]	; (8000580 <time_init+0x28>)
 800055c:	681c      	ldr	r4, [r3, #0]
 800055e:	4b09      	ldr	r3, [pc, #36]	; (8000584 <time_init+0x2c>)
 8000560:	fba3 3404 	umull	r3, r4, r3, r4
 8000564:	09a4      	lsrs	r4, r4, #6


static void systick_config(uint32_t ticks){

	/* 72MHz => 72000000 counts per second for systick clock*/
	systick_set_clocksource(STK_CSR_CLKSOURCE_AHB);
 8000566:	2004      	movs	r0, #4
 8000568:	f002 fa4c 	bl	8002a04 <systick_set_clocksource>
	
	/* For 1 khz clock tick must count 72Mhz/1000Khz = 72000 Ticks */
	/* SysTick interrupt every N clock pulses: set reload to N-1 */
	systick_set_reload(ticks - 1); //1ms every interrupt
 800056c:	1e60      	subs	r0, r4, #1
 800056e:	f002 fa41 	bl	80029f4 <systick_set_reload>

	systick_interrupt_enable();
 8000572:	f002 fa53 	bl	8002a1c <systick_interrupt_enable>

	// Make sure timer isn't random
	systick_clear();
 8000576:	f002 fa61 	bl	8002a3c <systick_clear>
	
	/* Start counting. */
	systick_counter_enable();
 800057a:	f002 fa57 	bl	8002a2c <systick_counter_enable>
}
 800057e:	bd10      	pop	{r4, pc}
 8000580:	20000000 	.word	0x20000000
 8000584:	10624dd3 	.word	0x10624dd3

08000588 <sys_tick_handler>:
void sys_tick_handler(void){
 8000588:	b508      	push	{r3, lr}
    sys_tick_handler_v();
 800058a:	f7ff ffd9 	bl	8000540 <sys_tick_handler_v>
	milliseconds++;	
 800058e:	4a02      	ldr	r2, [pc, #8]	; (8000598 <sys_tick_handler+0x10>)
 8000590:	6813      	ldr	r3, [r2, #0]
 8000592:	3301      	adds	r3, #1
 8000594:	6013      	str	r3, [r2, #0]
}
 8000596:	bd08      	pop	{r3, pc}
 8000598:	20000010 	.word	0x20000010

0800059c <sin>:
 800059c:	b5f0      	push	{r4, r5, r6, r7, lr}
 800059e:	4d28      	ldr	r5, [pc, #160]	; (8000640 <sin+0xa4>)
 80005a0:	f021 4300 	bic.w	r3, r1, #2147483648	; 0x80000000
 80005a4:	42ab      	cmp	r3, r5
 80005a6:	b087      	sub	sp, #28
 80005a8:	dd20      	ble.n	80005ec <sin+0x50>
 80005aa:	4d26      	ldr	r5, [pc, #152]	; (8000644 <sin+0xa8>)
 80005ac:	42ab      	cmp	r3, r5
 80005ae:	dd09      	ble.n	80005c4 <sin+0x28>
 80005b0:	4602      	mov	r2, r0
 80005b2:	460b      	mov	r3, r1
 80005b4:	f001 fab4 	bl	8001b20 <__aeabi_dsub>
 80005b8:	4602      	mov	r2, r0
 80005ba:	460b      	mov	r3, r1
 80005bc:	4610      	mov	r0, r2
 80005be:	4619      	mov	r1, r3
 80005c0:	b007      	add	sp, #28
 80005c2:	bdf0      	pop	{r4, r5, r6, r7, pc}
 80005c4:	aa02      	add	r2, sp, #8
 80005c6:	f000 f83f 	bl	8000648 <__ieee754_rem_pio2>
 80005ca:	f000 0003 	and.w	r0, r0, #3
 80005ce:	2801      	cmp	r0, #1
 80005d0:	d018      	beq.n	8000604 <sin+0x68>
 80005d2:	2802      	cmp	r0, #2
 80005d4:	d028      	beq.n	8000628 <sin+0x8c>
 80005d6:	e9dd 2304 	ldrd	r2, r3, [sp, #16]
 80005da:	b1e0      	cbz	r0, 8000616 <sin+0x7a>
 80005dc:	e9dd 0102 	ldrd	r0, r1, [sp, #8]
 80005e0:	f000 fa5a 	bl	8000a98 <__kernel_cos>
 80005e4:	4602      	mov	r2, r0
 80005e6:	f101 4300 	add.w	r3, r1, #2147483648	; 0x80000000
 80005ea:	e7e7      	b.n	80005bc <sin+0x20>
 80005ec:	2400      	movs	r4, #0
 80005ee:	2200      	movs	r2, #0
 80005f0:	2300      	movs	r3, #0
 80005f2:	9400      	str	r4, [sp, #0]
 80005f4:	f000 ffa8 	bl	8001548 <__kernel_sin>
 80005f8:	4602      	mov	r2, r0
 80005fa:	460b      	mov	r3, r1
 80005fc:	4610      	mov	r0, r2
 80005fe:	4619      	mov	r1, r3
 8000600:	b007      	add	sp, #28
 8000602:	bdf0      	pop	{r4, r5, r6, r7, pc}
 8000604:	e9dd 2304 	ldrd	r2, r3, [sp, #16]
 8000608:	e9dd 0102 	ldrd	r0, r1, [sp, #8]
 800060c:	f000 fa44 	bl	8000a98 <__kernel_cos>
 8000610:	4602      	mov	r2, r0
 8000612:	460b      	mov	r3, r1
 8000614:	e7d2      	b.n	80005bc <sin+0x20>
 8000616:	2401      	movs	r4, #1
 8000618:	e9dd 0102 	ldrd	r0, r1, [sp, #8]
 800061c:	9400      	str	r4, [sp, #0]
 800061e:	f000 ff93 	bl	8001548 <__kernel_sin>
 8000622:	4602      	mov	r2, r0
 8000624:	460b      	mov	r3, r1
 8000626:	e7c9      	b.n	80005bc <sin+0x20>
 8000628:	2401      	movs	r4, #1
 800062a:	e9dd 2304 	ldrd	r2, r3, [sp, #16]
 800062e:	e9dd 0102 	ldrd	r0, r1, [sp, #8]
 8000632:	9400      	str	r4, [sp, #0]
 8000634:	f000 ff88 	bl	8001548 <__kernel_sin>
 8000638:	4602      	mov	r2, r0
 800063a:	f101 4300 	add.w	r3, r1, #2147483648	; 0x80000000
 800063e:	e7bd      	b.n	80005bc <sin+0x20>
 8000640:	3fe921fb 	.word	0x3fe921fb
 8000644:	7fefffff 	.word	0x7fefffff

08000648 <__ieee754_rem_pio2>:
 8000648:	e92d 4ff0 	stmdb	sp!, {r4, r5, r6, r7, r8, r9, sl, fp, lr}
 800064c:	4f9e      	ldr	r7, [pc, #632]	; (80008c8 <__ieee754_rem_pio2+0x280>)
 800064e:	f021 4500 	bic.w	r5, r1, #2147483648	; 0x80000000
 8000652:	42bd      	cmp	r5, r7
 8000654:	4614      	mov	r4, r2
 8000656:	4606      	mov	r6, r0
 8000658:	b08d      	sub	sp, #52	; 0x34
 800065a:	f340 8086 	ble.w	800076a <__ieee754_rem_pio2+0x122>
 800065e:	4a9b      	ldr	r2, [pc, #620]	; (80008cc <__ieee754_rem_pio2+0x284>)
 8000660:	468b      	mov	fp, r1
 8000662:	4295      	cmp	r5, r2
 8000664:	dc27      	bgt.n	80006b6 <__ieee754_rem_pio2+0x6e>
 8000666:	a38e      	add	r3, pc, #568	; (adr r3, 80008a0 <__ieee754_rem_pio2+0x258>)
 8000668:	e9d3 2300 	ldrd	r2, r3, [r3]
 800066c:	2900      	cmp	r1, #0
 800066e:	f340 81bc 	ble.w	80009ea <__ieee754_rem_pio2+0x3a2>
 8000672:	f001 fa55 	bl	8001b20 <__aeabi_dsub>
 8000676:	4b96      	ldr	r3, [pc, #600]	; (80008d0 <__ieee754_rem_pio2+0x288>)
 8000678:	4606      	mov	r6, r0
 800067a:	429d      	cmp	r5, r3
 800067c:	460f      	mov	r7, r1
 800067e:	f000 808b 	beq.w	8000798 <__ieee754_rem_pio2+0x150>
 8000682:	a389      	add	r3, pc, #548	; (adr r3, 80008a8 <__ieee754_rem_pio2+0x260>)
 8000684:	e9d3 2300 	ldrd	r2, r3, [r3]
 8000688:	f001 fa4a 	bl	8001b20 <__aeabi_dsub>
 800068c:	4602      	mov	r2, r0
 800068e:	460b      	mov	r3, r1
 8000690:	4630      	mov	r0, r6
 8000692:	e9c4 2300 	strd	r2, r3, [r4]
 8000696:	4639      	mov	r1, r7
 8000698:	f001 fa42 	bl	8001b20 <__aeabi_dsub>
 800069c:	a382      	add	r3, pc, #520	; (adr r3, 80008a8 <__ieee754_rem_pio2+0x260>)
 800069e:	e9d3 2300 	ldrd	r2, r3, [r3]
 80006a2:	f001 fa3d 	bl	8001b20 <__aeabi_dsub>
 80006a6:	f04f 0a01 	mov.w	sl, #1
 80006aa:	e9c4 0102 	strd	r0, r1, [r4, #8]
 80006ae:	4650      	mov	r0, sl
 80006b0:	b00d      	add	sp, #52	; 0x34
 80006b2:	e8bd 8ff0 	ldmia.w	sp!, {r4, r5, r6, r7, r8, r9, sl, fp, pc}
 80006b6:	4a87      	ldr	r2, [pc, #540]	; (80008d4 <__ieee754_rem_pio2+0x28c>)
 80006b8:	4295      	cmp	r5, r2
 80006ba:	f340 808e 	ble.w	80007da <__ieee754_rem_pio2+0x192>
 80006be:	4a86      	ldr	r2, [pc, #536]	; (80008d8 <__ieee754_rem_pio2+0x290>)
 80006c0:	4295      	cmp	r5, r2
 80006c2:	dc5e      	bgt.n	8000782 <__ieee754_rem_pio2+0x13a>
 80006c4:	ea4f 5a25 	mov.w	sl, r5, asr #20
 80006c8:	f2aa 4a16 	subw	sl, sl, #1046	; 0x416
 80006cc:	eba5 510a 	sub.w	r1, r5, sl, lsl #20
 80006d0:	460f      	mov	r7, r1
 80006d2:	f001 fc65 	bl	8001fa0 <__aeabi_d2iz>
 80006d6:	f001 fb71 	bl	8001dbc <__aeabi_i2d>
 80006da:	4680      	mov	r8, r0
 80006dc:	4689      	mov	r9, r1
 80006de:	4630      	mov	r0, r6
 80006e0:	4639      	mov	r1, r7
 80006e2:	4642      	mov	r2, r8
 80006e4:	464b      	mov	r3, r9
 80006e6:	e9cd 8906 	strd	r8, r9, [sp, #24]
 80006ea:	f001 fa19 	bl	8001b20 <__aeabi_dsub>
 80006ee:	2200      	movs	r2, #0
 80006f0:	4b7a      	ldr	r3, [pc, #488]	; (80008dc <__ieee754_rem_pio2+0x294>)
 80006f2:	f001 f8e7 	bl	80018c4 <__aeabi_dmul>
 80006f6:	460f      	mov	r7, r1
 80006f8:	4606      	mov	r6, r0
 80006fa:	f001 fc51 	bl	8001fa0 <__aeabi_d2iz>
 80006fe:	4605      	mov	r5, r0
 8000700:	f001 fb5c 	bl	8001dbc <__aeabi_i2d>
 8000704:	4602      	mov	r2, r0
 8000706:	460b      	mov	r3, r1
 8000708:	4630      	mov	r0, r6
 800070a:	4639      	mov	r1, r7
 800070c:	e9cd 2308 	strd	r2, r3, [sp, #32]
 8000710:	f001 fa06 	bl	8001b20 <__aeabi_dsub>
 8000714:	2200      	movs	r2, #0
 8000716:	4b71      	ldr	r3, [pc, #452]	; (80008dc <__ieee754_rem_pio2+0x294>)
 8000718:	f001 f8d4 	bl	80018c4 <__aeabi_dmul>
 800071c:	4602      	mov	r2, r0
 800071e:	460b      	mov	r3, r1
 8000720:	e9cd 230a 	strd	r2, r3, [sp, #40]	; 0x28
 8000724:	2200      	movs	r2, #0
 8000726:	2300      	movs	r3, #0
 8000728:	f001 fc08 	bl	8001f3c <__aeabi_dcmpeq>
 800072c:	2800      	cmp	r0, #0
 800072e:	f000 815a 	beq.w	80009e6 <__ieee754_rem_pio2+0x39e>
 8000732:	2d00      	cmp	r5, #0
 8000734:	bf0c      	ite	eq
 8000736:	2301      	moveq	r3, #1
 8000738:	2302      	movne	r3, #2
 800073a:	2002      	movs	r0, #2
 800073c:	4968      	ldr	r1, [pc, #416]	; (80008e0 <__ieee754_rem_pio2+0x298>)
 800073e:	4652      	mov	r2, sl
 8000740:	e9cd 0100 	strd	r0, r1, [sp]
 8000744:	4621      	mov	r1, r4
 8000746:	a806      	add	r0, sp, #24
 8000748:	f000 face 	bl	8000ce8 <__kernel_rem_pio2>
 800074c:	f1bb 0f00 	cmp.w	fp, #0
 8000750:	4682      	mov	sl, r0
 8000752:	daac      	bge.n	80006ae <__ieee754_rem_pio2+0x66>
 8000754:	6862      	ldr	r2, [r4, #4]
 8000756:	68e3      	ldr	r3, [r4, #12]
 8000758:	f102 4200 	add.w	r2, r2, #2147483648	; 0x80000000
 800075c:	f103 4300 	add.w	r3, r3, #2147483648	; 0x80000000
 8000760:	f1c0 0a00 	rsb	sl, r0, #0
 8000764:	6062      	str	r2, [r4, #4]
 8000766:	60e3      	str	r3, [r4, #12]
 8000768:	e7a1      	b.n	80006ae <__ieee754_rem_pio2+0x66>
 800076a:	f04f 0a00 	mov.w	sl, #0
 800076e:	2200      	movs	r2, #0
 8000770:	2300      	movs	r3, #0
 8000772:	e9c4 0100 	strd	r0, r1, [r4]
 8000776:	4650      	mov	r0, sl
 8000778:	e9c4 2302 	strd	r2, r3, [r4, #8]
 800077c:	b00d      	add	sp, #52	; 0x34
 800077e:	e8bd 8ff0 	ldmia.w	sp!, {r4, r5, r6, r7, r8, r9, sl, fp, pc}
 8000782:	4602      	mov	r2, r0
 8000784:	465b      	mov	r3, fp
 8000786:	f001 f9cb 	bl	8001b20 <__aeabi_dsub>
 800078a:	f04f 0a00 	mov.w	sl, #0
 800078e:	e9c4 0102 	strd	r0, r1, [r4, #8]
 8000792:	e9c4 0100 	strd	r0, r1, [r4]
 8000796:	e78a      	b.n	80006ae <__ieee754_rem_pio2+0x66>
 8000798:	a345      	add	r3, pc, #276	; (adr r3, 80008b0 <__ieee754_rem_pio2+0x268>)
 800079a:	e9d3 2300 	ldrd	r2, r3, [r3]
 800079e:	f001 f9bf 	bl	8001b20 <__aeabi_dsub>
 80007a2:	a345      	add	r3, pc, #276	; (adr r3, 80008b8 <__ieee754_rem_pio2+0x270>)
 80007a4:	e9d3 2300 	ldrd	r2, r3, [r3]
 80007a8:	4606      	mov	r6, r0
 80007aa:	460f      	mov	r7, r1
 80007ac:	f001 f9b8 	bl	8001b20 <__aeabi_dsub>
 80007b0:	4602      	mov	r2, r0
 80007b2:	460b      	mov	r3, r1
 80007b4:	4630      	mov	r0, r6
 80007b6:	e9c4 2300 	strd	r2, r3, [r4]
 80007ba:	4639      	mov	r1, r7
 80007bc:	f001 f9b0 	bl	8001b20 <__aeabi_dsub>
 80007c0:	a33d      	add	r3, pc, #244	; (adr r3, 80008b8 <__ieee754_rem_pio2+0x270>)
 80007c2:	e9d3 2300 	ldrd	r2, r3, [r3]
 80007c6:	f001 f9ab 	bl	8001b20 <__aeabi_dsub>
 80007ca:	f04f 0a01 	mov.w	sl, #1
 80007ce:	e9c4 0102 	strd	r0, r1, [r4, #8]
 80007d2:	4650      	mov	r0, sl
 80007d4:	b00d      	add	sp, #52	; 0x34
 80007d6:	e8bd 8ff0 	ldmia.w	sp!, {r4, r5, r6, r7, r8, r9, sl, fp, pc}
 80007da:	f000 ff77 	bl	80016cc <fabs>
 80007de:	a338      	add	r3, pc, #224	; (adr r3, 80008c0 <__ieee754_rem_pio2+0x278>)
 80007e0:	e9d3 2300 	ldrd	r2, r3, [r3]
 80007e4:	4606      	mov	r6, r0
 80007e6:	460f      	mov	r7, r1
 80007e8:	f001 f86c 	bl	80018c4 <__aeabi_dmul>
 80007ec:	2200      	movs	r2, #0
 80007ee:	4b3d      	ldr	r3, [pc, #244]	; (80008e4 <__ieee754_rem_pio2+0x29c>)
 80007f0:	f001 f998 	bl	8001b24 <__adddf3>
 80007f4:	f001 fbd4 	bl	8001fa0 <__aeabi_d2iz>
 80007f8:	4682      	mov	sl, r0
 80007fa:	f001 fadf 	bl	8001dbc <__aeabi_i2d>
 80007fe:	a328      	add	r3, pc, #160	; (adr r3, 80008a0 <__ieee754_rem_pio2+0x258>)
 8000800:	e9d3 2300 	ldrd	r2, r3, [r3]
 8000804:	4680      	mov	r8, r0
 8000806:	4689      	mov	r9, r1
 8000808:	e9cd 8904 	strd	r8, r9, [sp, #16]
 800080c:	f001 f85a 	bl	80018c4 <__aeabi_dmul>
 8000810:	4602      	mov	r2, r0
 8000812:	460b      	mov	r3, r1
 8000814:	4630      	mov	r0, r6
 8000816:	4639      	mov	r1, r7
 8000818:	f001 f982 	bl	8001b20 <__aeabi_dsub>
 800081c:	a322      	add	r3, pc, #136	; (adr r3, 80008a8 <__ieee754_rem_pio2+0x260>)
 800081e:	e9d3 2300 	ldrd	r2, r3, [r3]
 8000822:	4606      	mov	r6, r0
 8000824:	460f      	mov	r7, r1
 8000826:	4640      	mov	r0, r8
 8000828:	4649      	mov	r1, r9
 800082a:	46b0      	mov	r8, r6
 800082c:	46b9      	mov	r9, r7
 800082e:	e9cd 8902 	strd	r8, r9, [sp, #8]
 8000832:	f001 f847 	bl	80018c4 <__aeabi_dmul>
 8000836:	f1ba 0f1f 	cmp.w	sl, #31
 800083a:	4606      	mov	r6, r0
 800083c:	460f      	mov	r7, r1
 800083e:	4602      	mov	r2, r0
 8000840:	460b      	mov	r3, r1
 8000842:	dc53      	bgt.n	80008ec <__ieee754_rem_pio2+0x2a4>
 8000844:	4640      	mov	r0, r8
 8000846:	4649      	mov	r1, r9
 8000848:	f001 f96a 	bl	8001b20 <__aeabi_dsub>
 800084c:	4b26      	ldr	r3, [pc, #152]	; (80008e8 <__ieee754_rem_pio2+0x2a0>)
 800084e:	f10a 32ff 	add.w	r2, sl, #4294967295	; 0xffffffff
 8000852:	f853 3022 	ldr.w	r3, [r3, r2, lsl #2]
 8000856:	4681      	mov	r9, r0
 8000858:	42ab      	cmp	r3, r5
 800085a:	4688      	mov	r8, r1
 800085c:	d04c      	beq.n	80008f8 <__ieee754_rem_pio2+0x2b0>
 800085e:	e9dd 0102 	ldrd	r0, r1, [sp, #8]
 8000862:	464a      	mov	r2, r9
 8000864:	4643      	mov	r3, r8
 8000866:	e9c4 2300 	strd	r2, r3, [r4]
 800086a:	f001 f959 	bl	8001b20 <__aeabi_dsub>
 800086e:	4632      	mov	r2, r6
 8000870:	463b      	mov	r3, r7
 8000872:	f001 f955 	bl	8001b20 <__aeabi_dsub>
 8000876:	4602      	mov	r2, r0
 8000878:	460b      	mov	r3, r1
 800087a:	f1bb 0f00 	cmp.w	fp, #0
 800087e:	4605      	mov	r5, r0
 8000880:	e9c4 2302 	strd	r2, r3, [r4, #8]
 8000884:	f6bf af13 	bge.w	80006ae <__ieee754_rem_pio2+0x66>
 8000888:	f108 4300 	add.w	r3, r8, #2147483648	; 0x80000000
 800088c:	f101 4100 	add.w	r1, r1, #2147483648	; 0x80000000
 8000890:	e9c4 9300 	strd	r9, r3, [r4]
 8000894:	e9c4 5102 	strd	r5, r1, [r4, #8]
 8000898:	f1ca 0a00 	rsb	sl, sl, #0
 800089c:	e707      	b.n	80006ae <__ieee754_rem_pio2+0x66>
 800089e:	bf00      	nop
 80008a0:	54400000 	.word	0x54400000
 80008a4:	3ff921fb 	.word	0x3ff921fb
 80008a8:	1a626331 	.word	0x1a626331
 80008ac:	3dd0b461 	.word	0x3dd0b461
 80008b0:	1a600000 	.word	0x1a600000
 80008b4:	3dd0b461 	.word	0x3dd0b461
 80008b8:	2e037073 	.word	0x2e037073
 80008bc:	3ba3198a 	.word	0x3ba3198a
 80008c0:	6dc9c883 	.word	0x6dc9c883
 80008c4:	3fe45f30 	.word	0x3fe45f30
 80008c8:	3fe921fb 	.word	0x3fe921fb
 80008cc:	4002d97b 	.word	0x4002d97b
 80008d0:	3ff921fb 	.word	0x3ff921fb
 80008d4:	413921fb 	.word	0x413921fb
 80008d8:	7fefffff 	.word	0x7fefffff
 80008dc:	41700000 	.word	0x41700000
 80008e0:	08002b18 	.word	0x08002b18
 80008e4:	3fe00000 	.word	0x3fe00000
 80008e8:	08002a98 	.word	0x08002a98
 80008ec:	e9dd 0102 	ldrd	r0, r1, [sp, #8]
 80008f0:	f001 f916 	bl	8001b20 <__aeabi_dsub>
 80008f4:	4681      	mov	r9, r0
 80008f6:	4688      	mov	r8, r1
 80008f8:	f3c8 530a 	ubfx	r3, r8, #20, #11
 80008fc:	ebc3 5315 	rsb	r3, r3, r5, lsr #20
 8000900:	2b10      	cmp	r3, #16
 8000902:	ea4f 5525 	mov.w	r5, r5, asr #20
 8000906:	ddaa      	ble.n	800085e <__ieee754_rem_pio2+0x216>
 8000908:	a357      	add	r3, pc, #348	; (adr r3, 8000a68 <__ieee754_rem_pio2+0x420>)
 800090a:	e9d3 2300 	ldrd	r2, r3, [r3]
 800090e:	e9dd 0104 	ldrd	r0, r1, [sp, #16]
 8000912:	f000 ffd7 	bl	80018c4 <__aeabi_dmul>
 8000916:	4606      	mov	r6, r0
 8000918:	460f      	mov	r7, r1
 800091a:	e9dd 0102 	ldrd	r0, r1, [sp, #8]
 800091e:	4632      	mov	r2, r6
 8000920:	463b      	mov	r3, r7
 8000922:	f001 f8fd 	bl	8001b20 <__aeabi_dsub>
 8000926:	4680      	mov	r8, r0
 8000928:	4689      	mov	r9, r1
 800092a:	e9dd 0102 	ldrd	r0, r1, [sp, #8]
 800092e:	4642      	mov	r2, r8
 8000930:	464b      	mov	r3, r9
 8000932:	f001 f8f5 	bl	8001b20 <__aeabi_dsub>
 8000936:	4632      	mov	r2, r6
 8000938:	463b      	mov	r3, r7
 800093a:	f001 f8f1 	bl	8001b20 <__aeabi_dsub>
 800093e:	a34c      	add	r3, pc, #304	; (adr r3, 8000a70 <__ieee754_rem_pio2+0x428>)
 8000940:	e9d3 2300 	ldrd	r2, r3, [r3]
 8000944:	4606      	mov	r6, r0
 8000946:	460f      	mov	r7, r1
 8000948:	e9dd 0104 	ldrd	r0, r1, [sp, #16]
 800094c:	f000 ffba 	bl	80018c4 <__aeabi_dmul>
 8000950:	4632      	mov	r2, r6
 8000952:	463b      	mov	r3, r7
 8000954:	f001 f8e4 	bl	8001b20 <__aeabi_dsub>
 8000958:	4606      	mov	r6, r0
 800095a:	460f      	mov	r7, r1
 800095c:	4640      	mov	r0, r8
 800095e:	4649      	mov	r1, r9
 8000960:	463b      	mov	r3, r7
 8000962:	4632      	mov	r2, r6
 8000964:	e9cd 8902 	strd	r8, r9, [sp, #8]
 8000968:	f001 f8da 	bl	8001b20 <__aeabi_dsub>
 800096c:	f3c1 530a 	ubfx	r3, r1, #20, #11
 8000970:	1aed      	subs	r5, r5, r3
 8000972:	2d31      	cmp	r5, #49	; 0x31
 8000974:	4688      	mov	r8, r1
 8000976:	4681      	mov	r9, r0
 8000978:	f77f af71 	ble.w	800085e <__ieee754_rem_pio2+0x216>
 800097c:	a33e      	add	r3, pc, #248	; (adr r3, 8000a78 <__ieee754_rem_pio2+0x430>)
 800097e:	e9d3 2300 	ldrd	r2, r3, [r3]
 8000982:	e9dd 0104 	ldrd	r0, r1, [sp, #16]
 8000986:	f000 ff9d 	bl	80018c4 <__aeabi_dmul>
 800098a:	e9dd 5602 	ldrd	r5, r6, [sp, #8]
 800098e:	4680      	mov	r8, r0
 8000990:	4689      	mov	r9, r1
 8000992:	4642      	mov	r2, r8
 8000994:	464b      	mov	r3, r9
 8000996:	4631      	mov	r1, r6
 8000998:	4628      	mov	r0, r5
 800099a:	f001 f8c1 	bl	8001b20 <__aeabi_dsub>
 800099e:	4602      	mov	r2, r0
 80009a0:	460b      	mov	r3, r1
 80009a2:	4628      	mov	r0, r5
 80009a4:	4631      	mov	r1, r6
 80009a6:	e9cd 2302 	strd	r2, r3, [sp, #8]
 80009aa:	f001 f8b9 	bl	8001b20 <__aeabi_dsub>
 80009ae:	4642      	mov	r2, r8
 80009b0:	464b      	mov	r3, r9
 80009b2:	f001 f8b5 	bl	8001b20 <__aeabi_dsub>
 80009b6:	a332      	add	r3, pc, #200	; (adr r3, 8000a80 <__ieee754_rem_pio2+0x438>)
 80009b8:	e9d3 2300 	ldrd	r2, r3, [r3]
 80009bc:	4606      	mov	r6, r0
 80009be:	460f      	mov	r7, r1
 80009c0:	e9dd 0104 	ldrd	r0, r1, [sp, #16]
 80009c4:	f000 ff7e 	bl	80018c4 <__aeabi_dmul>
 80009c8:	4632      	mov	r2, r6
 80009ca:	463b      	mov	r3, r7
 80009cc:	f001 f8a8 	bl	8001b20 <__aeabi_dsub>
 80009d0:	4606      	mov	r6, r0
 80009d2:	460f      	mov	r7, r1
 80009d4:	e9dd 0102 	ldrd	r0, r1, [sp, #8]
 80009d8:	4632      	mov	r2, r6
 80009da:	463b      	mov	r3, r7
 80009dc:	f001 f8a0 	bl	8001b20 <__aeabi_dsub>
 80009e0:	4681      	mov	r9, r0
 80009e2:	4688      	mov	r8, r1
 80009e4:	e73b      	b.n	800085e <__ieee754_rem_pio2+0x216>
 80009e6:	2303      	movs	r3, #3
 80009e8:	e6a7      	b.n	800073a <__ieee754_rem_pio2+0xf2>
 80009ea:	f001 f89b 	bl	8001b24 <__adddf3>
 80009ee:	4b28      	ldr	r3, [pc, #160]	; (8000a90 <__ieee754_rem_pio2+0x448>)
 80009f0:	4606      	mov	r6, r0
 80009f2:	429d      	cmp	r5, r3
 80009f4:	460f      	mov	r7, r1
 80009f6:	d016      	beq.n	8000a26 <__ieee754_rem_pio2+0x3de>
 80009f8:	a323      	add	r3, pc, #140	; (adr r3, 8000a88 <__ieee754_rem_pio2+0x440>)
 80009fa:	e9d3 2300 	ldrd	r2, r3, [r3]
 80009fe:	f001 f891 	bl	8001b24 <__adddf3>
 8000a02:	4602      	mov	r2, r0
 8000a04:	460b      	mov	r3, r1
 8000a06:	4630      	mov	r0, r6
 8000a08:	e9c4 2300 	strd	r2, r3, [r4]
 8000a0c:	4639      	mov	r1, r7
 8000a0e:	f001 f887 	bl	8001b20 <__aeabi_dsub>
 8000a12:	a31d      	add	r3, pc, #116	; (adr r3, 8000a88 <__ieee754_rem_pio2+0x440>)
 8000a14:	e9d3 2300 	ldrd	r2, r3, [r3]
 8000a18:	f001 f884 	bl	8001b24 <__adddf3>
 8000a1c:	f04f 3aff 	mov.w	sl, #4294967295	; 0xffffffff
 8000a20:	e9c4 0102 	strd	r0, r1, [r4, #8]
 8000a24:	e643      	b.n	80006ae <__ieee754_rem_pio2+0x66>
 8000a26:	a310      	add	r3, pc, #64	; (adr r3, 8000a68 <__ieee754_rem_pio2+0x420>)
 8000a28:	e9d3 2300 	ldrd	r2, r3, [r3]
 8000a2c:	f001 f87a 	bl	8001b24 <__adddf3>
 8000a30:	a30f      	add	r3, pc, #60	; (adr r3, 8000a70 <__ieee754_rem_pio2+0x428>)
 8000a32:	e9d3 2300 	ldrd	r2, r3, [r3]
 8000a36:	4606      	mov	r6, r0
 8000a38:	460f      	mov	r7, r1
 8000a3a:	f001 f873 	bl	8001b24 <__adddf3>
 8000a3e:	4602      	mov	r2, r0
 8000a40:	460b      	mov	r3, r1
 8000a42:	4630      	mov	r0, r6
 8000a44:	e9c4 2300 	strd	r2, r3, [r4]
 8000a48:	4639      	mov	r1, r7
 8000a4a:	f001 f869 	bl	8001b20 <__aeabi_dsub>
 8000a4e:	a308      	add	r3, pc, #32	; (adr r3, 8000a70 <__ieee754_rem_pio2+0x428>)
 8000a50:	e9d3 2300 	ldrd	r2, r3, [r3]
 8000a54:	f001 f866 	bl	8001b24 <__adddf3>
 8000a58:	f04f 3aff 	mov.w	sl, #4294967295	; 0xffffffff
 8000a5c:	e9c4 0102 	strd	r0, r1, [r4, #8]
 8000a60:	e625      	b.n	80006ae <__ieee754_rem_pio2+0x66>
 8000a62:	bf00      	nop
 8000a64:	f3af 8000 	nop.w
 8000a68:	1a600000 	.word	0x1a600000
 8000a6c:	3dd0b461 	.word	0x3dd0b461
 8000a70:	2e037073 	.word	0x2e037073
 8000a74:	3ba3198a 	.word	0x3ba3198a
 8000a78:	2e000000 	.word	0x2e000000
 8000a7c:	3ba3198a 	.word	0x3ba3198a
 8000a80:	252049c1 	.word	0x252049c1
 8000a84:	397b839a 	.word	0x397b839a
 8000a88:	1a626331 	.word	0x1a626331
 8000a8c:	3dd0b461 	.word	0x3dd0b461
 8000a90:	3ff921fb 	.word	0x3ff921fb
 8000a94:	00000000 	.word	0x00000000

08000a98 <__kernel_cos>:
 8000a98:	e92d 4df0 	stmdb	sp!, {r4, r5, r6, r7, r8, sl, fp, lr}
 8000a9c:	f021 4700 	bic.w	r7, r1, #2147483648	; 0x80000000
 8000aa0:	b086      	sub	sp, #24
 8000aa2:	f1b7 5f79 	cmp.w	r7, #1044381696	; 0x3e400000
 8000aa6:	4688      	mov	r8, r1
 8000aa8:	4606      	mov	r6, r0
 8000aaa:	e9cd 2300 	strd	r2, r3, [sp]
 8000aae:	da6c      	bge.n	8000b8a <__kernel_cos+0xf2>
 8000ab0:	f001 fa76 	bl	8001fa0 <__aeabi_d2iz>
 8000ab4:	2800      	cmp	r0, #0
 8000ab6:	f000 80ed 	beq.w	8000c94 <__kernel_cos+0x1fc>
 8000aba:	4632      	mov	r2, r6
 8000abc:	4643      	mov	r3, r8
 8000abe:	4630      	mov	r0, r6
 8000ac0:	4641      	mov	r1, r8
 8000ac2:	f000 feff 	bl	80018c4 <__aeabi_dmul>
 8000ac6:	a376      	add	r3, pc, #472	; (adr r3, 8000ca0 <__kernel_cos+0x208>)
 8000ac8:	e9d3 2300 	ldrd	r2, r3, [r3]
 8000acc:	4604      	mov	r4, r0
 8000ace:	460d      	mov	r5, r1
 8000ad0:	f000 fef8 	bl	80018c4 <__aeabi_dmul>
 8000ad4:	a374      	add	r3, pc, #464	; (adr r3, 8000ca8 <__kernel_cos+0x210>)
 8000ad6:	e9d3 2300 	ldrd	r2, r3, [r3]
 8000ada:	f001 f823 	bl	8001b24 <__adddf3>
 8000ade:	4622      	mov	r2, r4
 8000ae0:	462b      	mov	r3, r5
 8000ae2:	f000 feef 	bl	80018c4 <__aeabi_dmul>
 8000ae6:	a372      	add	r3, pc, #456	; (adr r3, 8000cb0 <__kernel_cos+0x218>)
 8000ae8:	e9d3 2300 	ldrd	r2, r3, [r3]
 8000aec:	f001 f818 	bl	8001b20 <__aeabi_dsub>
 8000af0:	4622      	mov	r2, r4
 8000af2:	462b      	mov	r3, r5
 8000af4:	f000 fee6 	bl	80018c4 <__aeabi_dmul>
 8000af8:	a36f      	add	r3, pc, #444	; (adr r3, 8000cb8 <__kernel_cos+0x220>)
 8000afa:	e9d3 2300 	ldrd	r2, r3, [r3]
 8000afe:	f001 f811 	bl	8001b24 <__adddf3>
 8000b02:	4622      	mov	r2, r4
 8000b04:	462b      	mov	r3, r5
 8000b06:	f000 fedd 	bl	80018c4 <__aeabi_dmul>
 8000b0a:	a36d      	add	r3, pc, #436	; (adr r3, 8000cc0 <__kernel_cos+0x228>)
 8000b0c:	e9d3 2300 	ldrd	r2, r3, [r3]
 8000b10:	f001 f806 	bl	8001b20 <__aeabi_dsub>
 8000b14:	4622      	mov	r2, r4
 8000b16:	462b      	mov	r3, r5
 8000b18:	f000 fed4 	bl	80018c4 <__aeabi_dmul>
 8000b1c:	a36a      	add	r3, pc, #424	; (adr r3, 8000cc8 <__kernel_cos+0x230>)
 8000b1e:	e9d3 2300 	ldrd	r2, r3, [r3]
 8000b22:	f000 ffff 	bl	8001b24 <__adddf3>
 8000b26:	4622      	mov	r2, r4
 8000b28:	462b      	mov	r3, r5
 8000b2a:	f000 fecb 	bl	80018c4 <__aeabi_dmul>
 8000b2e:	e9cd 0102 	strd	r0, r1, [sp, #8]
 8000b32:	2200      	movs	r2, #0
 8000b34:	4620      	mov	r0, r4
 8000b36:	4629      	mov	r1, r5
 8000b38:	4b65      	ldr	r3, [pc, #404]	; (8000cd0 <__kernel_cos+0x238>)
 8000b3a:	f000 fec3 	bl	80018c4 <__aeabi_dmul>
 8000b3e:	e9dd 2302 	ldrd	r2, r3, [sp, #8]
 8000b42:	4682      	mov	sl, r0
 8000b44:	468b      	mov	fp, r1
 8000b46:	4620      	mov	r0, r4
 8000b48:	4629      	mov	r1, r5
 8000b4a:	f000 febb 	bl	80018c4 <__aeabi_dmul>
 8000b4e:	4632      	mov	r2, r6
 8000b50:	460f      	mov	r7, r1
 8000b52:	4606      	mov	r6, r0
 8000b54:	4641      	mov	r1, r8
 8000b56:	4610      	mov	r0, r2
 8000b58:	e9dd 2300 	ldrd	r2, r3, [sp]
 8000b5c:	f000 feb2 	bl	80018c4 <__aeabi_dmul>
 8000b60:	4602      	mov	r2, r0
 8000b62:	460b      	mov	r3, r1
 8000b64:	4630      	mov	r0, r6
 8000b66:	4639      	mov	r1, r7
 8000b68:	f000 ffda 	bl	8001b20 <__aeabi_dsub>
 8000b6c:	4602      	mov	r2, r0
 8000b6e:	460b      	mov	r3, r1
 8000b70:	4650      	mov	r0, sl
 8000b72:	4659      	mov	r1, fp
 8000b74:	f000 ffd4 	bl	8001b20 <__aeabi_dsub>
 8000b78:	4602      	mov	r2, r0
 8000b7a:	460b      	mov	r3, r1
 8000b7c:	2000      	movs	r0, #0
 8000b7e:	4955      	ldr	r1, [pc, #340]	; (8000cd4 <__kernel_cos+0x23c>)
 8000b80:	f000 ffce 	bl	8001b20 <__aeabi_dsub>
 8000b84:	b006      	add	sp, #24
 8000b86:	e8bd 8df0 	ldmia.w	sp!, {r4, r5, r6, r7, r8, sl, fp, pc}
 8000b8a:	4602      	mov	r2, r0
 8000b8c:	460b      	mov	r3, r1
 8000b8e:	f000 fe99 	bl	80018c4 <__aeabi_dmul>
 8000b92:	a343      	add	r3, pc, #268	; (adr r3, 8000ca0 <__kernel_cos+0x208>)
 8000b94:	e9d3 2300 	ldrd	r2, r3, [r3]
 8000b98:	4604      	mov	r4, r0
 8000b9a:	460d      	mov	r5, r1
 8000b9c:	f000 fe92 	bl	80018c4 <__aeabi_dmul>
 8000ba0:	a341      	add	r3, pc, #260	; (adr r3, 8000ca8 <__kernel_cos+0x210>)
 8000ba2:	e9d3 2300 	ldrd	r2, r3, [r3]
 8000ba6:	f000 ffbd 	bl	8001b24 <__adddf3>
 8000baa:	4622      	mov	r2, r4
 8000bac:	462b      	mov	r3, r5
 8000bae:	f000 fe89 	bl	80018c4 <__aeabi_dmul>
 8000bb2:	a33f      	add	r3, pc, #252	; (adr r3, 8000cb0 <__kernel_cos+0x218>)
 8000bb4:	e9d3 2300 	ldrd	r2, r3, [r3]
 8000bb8:	f000 ffb2 	bl	8001b20 <__aeabi_dsub>
 8000bbc:	4622      	mov	r2, r4
 8000bbe:	462b      	mov	r3, r5
 8000bc0:	f000 fe80 	bl	80018c4 <__aeabi_dmul>
 8000bc4:	a33c      	add	r3, pc, #240	; (adr r3, 8000cb8 <__kernel_cos+0x220>)
 8000bc6:	e9d3 2300 	ldrd	r2, r3, [r3]
 8000bca:	f000 ffab 	bl	8001b24 <__adddf3>
 8000bce:	4622      	mov	r2, r4
 8000bd0:	462b      	mov	r3, r5
 8000bd2:	f000 fe77 	bl	80018c4 <__aeabi_dmul>
 8000bd6:	a33a      	add	r3, pc, #232	; (adr r3, 8000cc0 <__kernel_cos+0x228>)
 8000bd8:	e9d3 2300 	ldrd	r2, r3, [r3]
 8000bdc:	f000 ffa0 	bl	8001b20 <__aeabi_dsub>
 8000be0:	4622      	mov	r2, r4
 8000be2:	462b      	mov	r3, r5
 8000be4:	f000 fe6e 	bl	80018c4 <__aeabi_dmul>
 8000be8:	a337      	add	r3, pc, #220	; (adr r3, 8000cc8 <__kernel_cos+0x230>)
 8000bea:	e9d3 2300 	ldrd	r2, r3, [r3]
 8000bee:	f000 ff99 	bl	8001b24 <__adddf3>
 8000bf2:	462b      	mov	r3, r5
 8000bf4:	4622      	mov	r2, r4
 8000bf6:	f000 fe65 	bl	80018c4 <__aeabi_dmul>
 8000bfa:	4b37      	ldr	r3, [pc, #220]	; (8000cd8 <__kernel_cos+0x240>)
 8000bfc:	e9cd 0102 	strd	r0, r1, [sp, #8]
 8000c00:	429f      	cmp	r7, r3
 8000c02:	dd96      	ble.n	8000b32 <__kernel_cos+0x9a>
 8000c04:	4b35      	ldr	r3, [pc, #212]	; (8000cdc <__kernel_cos+0x244>)
 8000c06:	429f      	cmp	r7, r3
 8000c08:	dc3b      	bgt.n	8000c82 <__kernel_cos+0x1ea>
 8000c0a:	f04f 0a00 	mov.w	sl, #0
 8000c0e:	f5a7 1b00 	sub.w	fp, r7, #2097152	; 0x200000
 8000c12:	2000      	movs	r0, #0
 8000c14:	4652      	mov	r2, sl
 8000c16:	465b      	mov	r3, fp
 8000c18:	492e      	ldr	r1, [pc, #184]	; (8000cd4 <__kernel_cos+0x23c>)
 8000c1a:	f000 ff81 	bl	8001b20 <__aeabi_dsub>
 8000c1e:	e9cd 0104 	strd	r0, r1, [sp, #16]
 8000c22:	2200      	movs	r2, #0
 8000c24:	4620      	mov	r0, r4
 8000c26:	4629      	mov	r1, r5
 8000c28:	4b29      	ldr	r3, [pc, #164]	; (8000cd0 <__kernel_cos+0x238>)
 8000c2a:	f000 fe4b 	bl	80018c4 <__aeabi_dmul>
 8000c2e:	4652      	mov	r2, sl
 8000c30:	465b      	mov	r3, fp
 8000c32:	f000 ff75 	bl	8001b20 <__aeabi_dsub>
 8000c36:	e9dd 2302 	ldrd	r2, r3, [sp, #8]
 8000c3a:	4682      	mov	sl, r0
 8000c3c:	468b      	mov	fp, r1
 8000c3e:	4620      	mov	r0, r4
 8000c40:	4629      	mov	r1, r5
 8000c42:	f000 fe3f 	bl	80018c4 <__aeabi_dmul>
 8000c46:	4632      	mov	r2, r6
 8000c48:	460f      	mov	r7, r1
 8000c4a:	4606      	mov	r6, r0
 8000c4c:	4641      	mov	r1, r8
 8000c4e:	4610      	mov	r0, r2
 8000c50:	e9dd 2300 	ldrd	r2, r3, [sp]
 8000c54:	f000 fe36 	bl	80018c4 <__aeabi_dmul>
 8000c58:	4602      	mov	r2, r0
 8000c5a:	460b      	mov	r3, r1
 8000c5c:	4630      	mov	r0, r6
 8000c5e:	4639      	mov	r1, r7
 8000c60:	f000 ff5e 	bl	8001b20 <__aeabi_dsub>
 8000c64:	4602      	mov	r2, r0
 8000c66:	460b      	mov	r3, r1
 8000c68:	4650      	mov	r0, sl
 8000c6a:	4659      	mov	r1, fp
 8000c6c:	f000 ff58 	bl	8001b20 <__aeabi_dsub>
 8000c70:	4602      	mov	r2, r0
 8000c72:	460b      	mov	r3, r1
 8000c74:	e9dd 0104 	ldrd	r0, r1, [sp, #16]
 8000c78:	f000 ff52 	bl	8001b20 <__aeabi_dsub>
 8000c7c:	b006      	add	sp, #24
 8000c7e:	e8bd 8df0 	ldmia.w	sp!, {r4, r5, r6, r7, r8, sl, fp, pc}
 8000c82:	2200      	movs	r2, #0
 8000c84:	4b16      	ldr	r3, [pc, #88]	; (8000ce0 <__kernel_cos+0x248>)
 8000c86:	f04f 0a00 	mov.w	sl, #0
 8000c8a:	e9cd 2304 	strd	r2, r3, [sp, #16]
 8000c8e:	f8df b054 	ldr.w	fp, [pc, #84]	; 8000ce4 <__kernel_cos+0x24c>
 8000c92:	e7c6      	b.n	8000c22 <__kernel_cos+0x18a>
 8000c94:	2000      	movs	r0, #0
 8000c96:	490f      	ldr	r1, [pc, #60]	; (8000cd4 <__kernel_cos+0x23c>)
 8000c98:	b006      	add	sp, #24
 8000c9a:	e8bd 8df0 	ldmia.w	sp!, {r4, r5, r6, r7, r8, sl, fp, pc}
 8000c9e:	bf00      	nop
 8000ca0:	be8838d4 	.word	0xbe8838d4
 8000ca4:	bda8fae9 	.word	0xbda8fae9
 8000ca8:	bdb4b1c4 	.word	0xbdb4b1c4
 8000cac:	3e21ee9e 	.word	0x3e21ee9e
 8000cb0:	809c52ad 	.word	0x809c52ad
 8000cb4:	3e927e4f 	.word	0x3e927e4f
 8000cb8:	19cb1590 	.word	0x19cb1590
 8000cbc:	3efa01a0 	.word	0x3efa01a0
 8000cc0:	16c15177 	.word	0x16c15177
 8000cc4:	3f56c16c 	.word	0x3f56c16c
 8000cc8:	5555554c 	.word	0x5555554c
 8000ccc:	3fa55555 	.word	0x3fa55555
 8000cd0:	3fe00000 	.word	0x3fe00000
 8000cd4:	3ff00000 	.word	0x3ff00000
 8000cd8:	3fd33332 	.word	0x3fd33332
 8000cdc:	3fe90000 	.word	0x3fe90000
 8000ce0:	3fe70000 	.word	0x3fe70000
 8000ce4:	3fd20000 	.word	0x3fd20000

08000ce8 <__kernel_rem_pio2>:
 8000ce8:	e92d 4ff0 	stmdb	sp!, {r4, r5, r6, r7, r8, r9, sl, fp, lr}
 8000cec:	461c      	mov	r4, r3
 8000cee:	f5ad 7d19 	sub.w	sp, sp, #612	; 0x264
 8000cf2:	910b      	str	r1, [sp, #44]	; 0x2c
 8000cf4:	1e61      	subs	r1, r4, #1
 8000cf6:	9308      	str	r3, [sp, #32]
 8000cf8:	9103      	str	r1, [sp, #12]
 8000cfa:	4bb8      	ldr	r3, [pc, #736]	; (8000fdc <__kernel_rem_pio2+0x2f4>)
 8000cfc:	99a2      	ldr	r1, [sp, #648]	; 0x288
 8000cfe:	f112 0f14 	cmn.w	r2, #20
 8000d02:	f853 3021 	ldr.w	r3, [r3, r1, lsl #2]
 8000d06:	4607      	mov	r7, r0
 8000d08:	9305      	str	r3, [sp, #20]
 8000d0a:	f2c0 834d 	blt.w	80013a8 <__kernel_rem_pio2+0x6c0>
 8000d0e:	49b4      	ldr	r1, [pc, #720]	; (8000fe0 <__kernel_rem_pio2+0x2f8>)
 8000d10:	1ed3      	subs	r3, r2, #3
 8000d12:	fb81 0103 	smull	r0, r1, r1, r3
 8000d16:	17db      	asrs	r3, r3, #31
 8000d18:	ebc3 03a1 	rsb	r3, r3, r1, asr #2
 8000d1c:	9307      	str	r3, [sp, #28]
 8000d1e:	3301      	adds	r3, #1
 8000d20:	eba3 0383 	sub.w	r3, r3, r3, lsl #2
 8000d24:	00db      	lsls	r3, r3, #3
 8000d26:	18d3      	adds	r3, r2, r3
 8000d28:	9306      	str	r3, [sp, #24]
 8000d2a:	9a07      	ldr	r2, [sp, #28]
 8000d2c:	9b03      	ldr	r3, [sp, #12]
 8000d2e:	1ad6      	subs	r6, r2, r3
 8000d30:	9a05      	ldr	r2, [sp, #20]
 8000d32:	eb12 0903 	adds.w	r9, r2, r3
 8000d36:	d41b      	bmi.n	8000d70 <__kernel_rem_pio2+0x88>
 8000d38:	f109 0901 	add.w	r9, r9, #1
 8000d3c:	2400      	movs	r4, #0
 8000d3e:	2500      	movs	r5, #0
 8000d40:	f8dd a28c 	ldr.w	sl, [sp, #652]	; 0x28c
 8000d44:	44b1      	add	r9, r6
 8000d46:	f10d 0880 	add.w	r8, sp, #128	; 0x80
 8000d4a:	e008      	b.n	8000d5e <__kernel_rem_pio2+0x76>
 8000d4c:	f85a 0026 	ldr.w	r0, [sl, r6, lsl #2]
 8000d50:	f001 f834 	bl	8001dbc <__aeabi_i2d>
 8000d54:	3601      	adds	r6, #1
 8000d56:	454e      	cmp	r6, r9
 8000d58:	e8e8 0102 	strd	r0, r1, [r8], #8
 8000d5c:	d008      	beq.n	8000d70 <__kernel_rem_pio2+0x88>
 8000d5e:	2e00      	cmp	r6, #0
 8000d60:	daf4      	bge.n	8000d4c <__kernel_rem_pio2+0x64>
 8000d62:	4620      	mov	r0, r4
 8000d64:	4629      	mov	r1, r5
 8000d66:	3601      	adds	r6, #1
 8000d68:	454e      	cmp	r6, r9
 8000d6a:	e8e8 0102 	strd	r0, r1, [r8], #8
 8000d6e:	d1f6      	bne.n	8000d5e <__kernel_rem_pio2+0x76>
 8000d70:	9b05      	ldr	r3, [sp, #20]
 8000d72:	2b00      	cmp	r3, #0
 8000d74:	f1a7 0308 	sub.w	r3, r7, #8
 8000d78:	9304      	str	r3, [sp, #16]
 8000d7a:	f2c0 83c1 	blt.w	8001500 <__kernel_rem_pio2+0x818>
 8000d7e:	4619      	mov	r1, r3
 8000d80:	9b08      	ldr	r3, [sp, #32]
 8000d82:	f8dd 900c 	ldr.w	r9, [sp, #12]
 8000d86:	00da      	lsls	r2, r3, #3
 8000d88:	9202      	str	r2, [sp, #8]
 8000d8a:	9a05      	ldr	r2, [sp, #20]
 8000d8c:	eb01 08c3 	add.w	r8, r1, r3, lsl #3
 8000d90:	a920      	add	r1, sp, #128	; 0x80
 8000d92:	eb01 0ac3 	add.w	sl, r1, r3, lsl #3
 8000d96:	18d3      	adds	r3, r2, r3
 8000d98:	f50d 7be0 	add.w	fp, sp, #448	; 0x1c0
 8000d9c:	9301      	str	r3, [sp, #4]
 8000d9e:	9b03      	ldr	r3, [sp, #12]
 8000da0:	2b00      	cmp	r3, #0
 8000da2:	f2c0 81b3 	blt.w	800110c <__kernel_rem_pio2+0x424>
 8000da6:	4657      	mov	r7, sl
 8000da8:	2400      	movs	r4, #0
 8000daa:	2500      	movs	r5, #0
 8000dac:	9e04      	ldr	r6, [sp, #16]
 8000dae:	e977 2302 	ldrd	r2, r3, [r7, #-8]!
 8000db2:	e9f6 0102 	ldrd	r0, r1, [r6, #8]!
 8000db6:	f000 fd85 	bl	80018c4 <__aeabi_dmul>
 8000dba:	4602      	mov	r2, r0
 8000dbc:	460b      	mov	r3, r1
 8000dbe:	4620      	mov	r0, r4
 8000dc0:	4629      	mov	r1, r5
 8000dc2:	f000 feaf 	bl	8001b24 <__adddf3>
 8000dc6:	4546      	cmp	r6, r8
 8000dc8:	4604      	mov	r4, r0
 8000dca:	460d      	mov	r5, r1
 8000dcc:	d1ef      	bne.n	8000dae <__kernel_rem_pio2+0xc6>
 8000dce:	9b01      	ldr	r3, [sp, #4]
 8000dd0:	f109 0901 	add.w	r9, r9, #1
 8000dd4:	4599      	cmp	r9, r3
 8000dd6:	e8eb 4502 	strd	r4, r5, [fp], #8
 8000dda:	f10a 0a08 	add.w	sl, sl, #8
 8000dde:	d1de      	bne.n	8000d9e <__kernel_rem_pio2+0xb6>
 8000de0:	9a05      	ldr	r2, [sp, #20]
 8000de2:	a90c      	add	r1, sp, #48	; 0x30
 8000de4:	eb01 0382 	add.w	r3, r1, r2, lsl #2
 8000de8:	9804      	ldr	r0, [sp, #16]
 8000dea:	9902      	ldr	r1, [sp, #8]
 8000dec:	3b08      	subs	r3, #8
 8000dee:	4401      	add	r1, r0
 8000df0:	468b      	mov	fp, r1
 8000df2:	9309      	str	r3, [sp, #36]	; 0x24
 8000df4:	ab0b      	add	r3, sp, #44	; 0x2c
 8000df6:	eb03 0382 	add.w	r3, r3, r2, lsl #2
 8000dfa:	9201      	str	r2, [sp, #4]
 8000dfc:	930a      	str	r3, [sp, #40]	; 0x28
 8000dfe:	9a01      	ldr	r2, [sp, #4]
 8000e00:	a998      	add	r1, sp, #608	; 0x260
 8000e02:	eb01 03c2 	add.w	r3, r1, r2, lsl #3
 8000e06:	2a00      	cmp	r2, #0
 8000e08:	e953 4528 	ldrd	r4, r5, [r3, #-160]	; 0xa0
 8000e0c:	dd2a      	ble.n	8000e64 <__kernel_rem_pio2+0x17c>
 8000e0e:	f50d 7ae0 	add.w	sl, sp, #448	; 0x1c0
 8000e12:	f10d 0930 	add.w	r9, sp, #48	; 0x30
 8000e16:	eb0a 08c2 	add.w	r8, sl, r2, lsl #3
 8000e1a:	2200      	movs	r2, #0
 8000e1c:	4b71      	ldr	r3, [pc, #452]	; (8000fe4 <__kernel_rem_pio2+0x2fc>)
 8000e1e:	4620      	mov	r0, r4
 8000e20:	4629      	mov	r1, r5
 8000e22:	f000 fd4f 	bl	80018c4 <__aeabi_dmul>
 8000e26:	f001 f8bb 	bl	8001fa0 <__aeabi_d2iz>
 8000e2a:	f000 ffc7 	bl	8001dbc <__aeabi_i2d>
 8000e2e:	2200      	movs	r2, #0
 8000e30:	4b6d      	ldr	r3, [pc, #436]	; (8000fe8 <__kernel_rem_pio2+0x300>)
 8000e32:	4606      	mov	r6, r0
 8000e34:	460f      	mov	r7, r1
 8000e36:	f000 fd45 	bl	80018c4 <__aeabi_dmul>
 8000e3a:	4602      	mov	r2, r0
 8000e3c:	460b      	mov	r3, r1
 8000e3e:	4620      	mov	r0, r4
 8000e40:	4629      	mov	r1, r5
 8000e42:	f000 fe6d 	bl	8001b20 <__aeabi_dsub>
 8000e46:	f001 f8ab 	bl	8001fa0 <__aeabi_d2iz>
 8000e4a:	e978 2302 	ldrd	r2, r3, [r8, #-8]!
 8000e4e:	4604      	mov	r4, r0
 8000e50:	4639      	mov	r1, r7
 8000e52:	f849 4b04 	str.w	r4, [r9], #4
 8000e56:	4630      	mov	r0, r6
 8000e58:	f000 fe64 	bl	8001b24 <__adddf3>
 8000e5c:	45d0      	cmp	r8, sl
 8000e5e:	4604      	mov	r4, r0
 8000e60:	460d      	mov	r5, r1
 8000e62:	d1da      	bne.n	8000e1a <__kernel_rem_pio2+0x132>
 8000e64:	f8dd 9018 	ldr.w	r9, [sp, #24]
 8000e68:	4620      	mov	r0, r4
 8000e6a:	4629      	mov	r1, r5
 8000e6c:	464a      	mov	r2, r9
 8000e6e:	f000 fcaf 	bl	80017d0 <scalbn>
 8000e72:	2200      	movs	r2, #0
 8000e74:	f04f 537f 	mov.w	r3, #1069547520	; 0x3fc00000
 8000e78:	4604      	mov	r4, r0
 8000e7a:	460d      	mov	r5, r1
 8000e7c:	f000 fd22 	bl	80018c4 <__aeabi_dmul>
 8000e80:	f000 fc2a 	bl	80016d8 <floor>
 8000e84:	2200      	movs	r2, #0
 8000e86:	4b59      	ldr	r3, [pc, #356]	; (8000fec <__kernel_rem_pio2+0x304>)
 8000e88:	f000 fd1c 	bl	80018c4 <__aeabi_dmul>
 8000e8c:	4602      	mov	r2, r0
 8000e8e:	460b      	mov	r3, r1
 8000e90:	4620      	mov	r0, r4
 8000e92:	4629      	mov	r1, r5
 8000e94:	f000 fe44 	bl	8001b20 <__aeabi_dsub>
 8000e98:	4604      	mov	r4, r0
 8000e9a:	460d      	mov	r5, r1
 8000e9c:	f001 f880 	bl	8001fa0 <__aeabi_d2iz>
 8000ea0:	4680      	mov	r8, r0
 8000ea2:	f000 ff8b 	bl	8001dbc <__aeabi_i2d>
 8000ea6:	4602      	mov	r2, r0
 8000ea8:	460b      	mov	r3, r1
 8000eaa:	4620      	mov	r0, r4
 8000eac:	4629      	mov	r1, r5
 8000eae:	464c      	mov	r4, r9
 8000eb0:	f000 fe36 	bl	8001b20 <__aeabi_dsub>
 8000eb4:	2c00      	cmp	r4, #0
 8000eb6:	4606      	mov	r6, r0
 8000eb8:	460f      	mov	r7, r1
 8000eba:	f340 8099 	ble.w	8000ff0 <__kernel_rem_pio2+0x308>
 8000ebe:	9b01      	ldr	r3, [sp, #4]
 8000ec0:	f1c9 0218 	rsb	r2, r9, #24
 8000ec4:	1e58      	subs	r0, r3, #1
 8000ec6:	ab0c      	add	r3, sp, #48	; 0x30
 8000ec8:	f853 3020 	ldr.w	r3, [r3, r0, lsl #2]
 8000ecc:	f1c9 0517 	rsb	r5, r9, #23
 8000ed0:	fa43 f102 	asr.w	r1, r3, r2
 8000ed4:	fa01 f202 	lsl.w	r2, r1, r2
 8000ed8:	1a9b      	subs	r3, r3, r2
 8000eda:	fa43 f505 	asr.w	r5, r3, r5
 8000ede:	aa0c      	add	r2, sp, #48	; 0x30
 8000ee0:	2d00      	cmp	r5, #0
 8000ee2:	f842 3020 	str.w	r3, [r2, r0, lsl #2]
 8000ee6:	4488      	add	r8, r1
 8000ee8:	f300 808c 	bgt.w	8001004 <__kernel_rem_pio2+0x31c>
 8000eec:	2200      	movs	r2, #0
 8000eee:	2300      	movs	r3, #0
 8000ef0:	4630      	mov	r0, r6
 8000ef2:	4639      	mov	r1, r7
 8000ef4:	f001 f822 	bl	8001f3c <__aeabi_dcmpeq>
 8000ef8:	2800      	cmp	r0, #0
 8000efa:	f000 825f 	beq.w	80013bc <__kernel_rem_pio2+0x6d4>
 8000efe:	9b01      	ldr	r3, [sp, #4]
 8000f00:	9a05      	ldr	r2, [sp, #20]
 8000f02:	f103 3aff 	add.w	sl, r3, #4294967295	; 0xffffffff
 8000f06:	4552      	cmp	r2, sl
 8000f08:	dc10      	bgt.n	8000f2c <__kernel_rem_pio2+0x244>
 8000f0a:	2200      	movs	r2, #0
 8000f0c:	f103 4380 	add.w	r3, r3, #1073741824	; 0x40000000
 8000f10:	3b01      	subs	r3, #1
 8000f12:	a90c      	add	r1, sp, #48	; 0x30
 8000f14:	980a      	ldr	r0, [sp, #40]	; 0x28
 8000f16:	eb01 0383 	add.w	r3, r1, r3, lsl #2
 8000f1a:	f853 1904 	ldr.w	r1, [r3], #-4
 8000f1e:	4283      	cmp	r3, r0
 8000f20:	ea42 0201 	orr.w	r2, r2, r1
 8000f24:	d1f9      	bne.n	8000f1a <__kernel_rem_pio2+0x232>
 8000f26:	2a00      	cmp	r2, #0
 8000f28:	f040 80f3 	bne.w	8001112 <__kernel_rem_pio2+0x42a>
 8000f2c:	9b05      	ldr	r3, [sp, #20]
 8000f2e:	aa0c      	add	r2, sp, #48	; 0x30
 8000f30:	3b01      	subs	r3, #1
 8000f32:	f852 3023 	ldr.w	r3, [r2, r3, lsl #2]
 8000f36:	2b00      	cmp	r3, #0
 8000f38:	f040 80e3 	bne.w	8001102 <__kernel_rem_pio2+0x41a>
 8000f3c:	2301      	movs	r3, #1
 8000f3e:	9a09      	ldr	r2, [sp, #36]	; 0x24
 8000f40:	f852 1904 	ldr.w	r1, [r2], #-4
 8000f44:	3301      	adds	r3, #1
 8000f46:	2900      	cmp	r1, #0
 8000f48:	d0fa      	beq.n	8000f40 <__kernel_rem_pio2+0x258>
 8000f4a:	9901      	ldr	r1, [sp, #4]
 8000f4c:	1c4a      	adds	r2, r1, #1
 8000f4e:	4691      	mov	r9, r2
 8000f50:	18cb      	adds	r3, r1, r3
 8000f52:	9302      	str	r3, [sp, #8]
 8000f54:	9b07      	ldr	r3, [sp, #28]
 8000f56:	9908      	ldr	r1, [sp, #32]
 8000f58:	eb02 0a03 	add.w	sl, r2, r3
 8000f5c:	9b01      	ldr	r3, [sp, #4]
 8000f5e:	f10a 4a80 	add.w	sl, sl, #1073741824	; 0x40000000
 8000f62:	440b      	add	r3, r1
 8000f64:	4698      	mov	r8, r3
 8000f66:	ab20      	add	r3, sp, #128	; 0x80
 8000f68:	eb03 08c8 	add.w	r8, r3, r8, lsl #3
 8000f6c:	9ba3      	ldr	r3, [sp, #652]	; 0x28c
 8000f6e:	f10a 3aff 	add.w	sl, sl, #4294967295	; 0xffffffff
 8000f72:	eb03 0a8a 	add.w	sl, r3, sl, lsl #2
 8000f76:	ab70      	add	r3, sp, #448	; 0x1c0
 8000f78:	eb03 03c2 	add.w	r3, r3, r2, lsl #3
 8000f7c:	9301      	str	r3, [sp, #4]
 8000f7e:	f85a 0f04 	ldr.w	r0, [sl, #4]!
 8000f82:	f000 ff1b 	bl	8001dbc <__aeabi_i2d>
 8000f86:	9b03      	ldr	r3, [sp, #12]
 8000f88:	4647      	mov	r7, r8
 8000f8a:	2b00      	cmp	r3, #0
 8000f8c:	e9c8 0100 	strd	r0, r1, [r8]
 8000f90:	f108 0808 	add.w	r8, r8, #8
 8000f94:	db1f      	blt.n	8000fd6 <__kernel_rem_pio2+0x2ee>
 8000f96:	2400      	movs	r4, #0
 8000f98:	2500      	movs	r5, #0
 8000f9a:	9e04      	ldr	r6, [sp, #16]
 8000f9c:	3f08      	subs	r7, #8
 8000f9e:	e001      	b.n	8000fa4 <__kernel_rem_pio2+0x2bc>
 8000fa0:	e877 0102 	ldrd	r0, r1, [r7], #-8
 8000fa4:	e9f6 2302 	ldrd	r2, r3, [r6, #8]!
 8000fa8:	f000 fc8c 	bl	80018c4 <__aeabi_dmul>
 8000fac:	4602      	mov	r2, r0
 8000fae:	460b      	mov	r3, r1
 8000fb0:	4620      	mov	r0, r4
 8000fb2:	4629      	mov	r1, r5
 8000fb4:	f000 fdb6 	bl	8001b24 <__adddf3>
 8000fb8:	455e      	cmp	r6, fp
 8000fba:	4604      	mov	r4, r0
 8000fbc:	460d      	mov	r5, r1
 8000fbe:	d1ef      	bne.n	8000fa0 <__kernel_rem_pio2+0x2b8>
 8000fc0:	9b01      	ldr	r3, [sp, #4]
 8000fc2:	f109 0901 	add.w	r9, r9, #1
 8000fc6:	e8e3 4502 	strd	r4, r5, [r3], #8
 8000fca:	9301      	str	r3, [sp, #4]
 8000fcc:	9b02      	ldr	r3, [sp, #8]
 8000fce:	4599      	cmp	r9, r3
 8000fd0:	ddd5      	ble.n	8000f7e <__kernel_rem_pio2+0x296>
 8000fd2:	9301      	str	r3, [sp, #4]
 8000fd4:	e713      	b.n	8000dfe <__kernel_rem_pio2+0x116>
 8000fd6:	2400      	movs	r4, #0
 8000fd8:	2500      	movs	r5, #0
 8000fda:	e7f1      	b.n	8000fc0 <__kernel_rem_pio2+0x2d8>
 8000fdc:	08002c60 	.word	0x08002c60
 8000fe0:	2aaaaaab 	.word	0x2aaaaaab
 8000fe4:	3e700000 	.word	0x3e700000
 8000fe8:	41700000 	.word	0x41700000
 8000fec:	40200000 	.word	0x40200000
 8000ff0:	d16e      	bne.n	80010d0 <__kernel_rem_pio2+0x3e8>
 8000ff2:	9b01      	ldr	r3, [sp, #4]
 8000ff4:	aa0c      	add	r2, sp, #48	; 0x30
 8000ff6:	3b01      	subs	r3, #1
 8000ff8:	f852 5023 	ldr.w	r5, [r2, r3, lsl #2]
 8000ffc:	15ed      	asrs	r5, r5, #23
 8000ffe:	2d00      	cmp	r5, #0
 8001000:	f77f af74 	ble.w	8000eec <__kernel_rem_pio2+0x204>
 8001004:	9b01      	ldr	r3, [sp, #4]
 8001006:	f108 0801 	add.w	r8, r8, #1
 800100a:	2b00      	cmp	r3, #0
 800100c:	f340 81d4 	ble.w	80013b8 <__kernel_rem_pio2+0x6d0>
 8001010:	9c0c      	ldr	r4, [sp, #48]	; 0x30
 8001012:	2c00      	cmp	r4, #0
 8001014:	d159      	bne.n	80010ca <__kernel_rem_pio2+0x3e2>
 8001016:	9b01      	ldr	r3, [sp, #4]
 8001018:	2b01      	cmp	r3, #1
 800101a:	d028      	beq.n	800106e <__kernel_rem_pio2+0x386>
 800101c:	2201      	movs	r2, #1
 800101e:	a90c      	add	r1, sp, #48	; 0x30
 8001020:	f851 4f04 	ldr.w	r4, [r1, #4]!
 8001024:	1c53      	adds	r3, r2, #1
 8001026:	b944      	cbnz	r4, 800103a <__kernel_rem_pio2+0x352>
 8001028:	9a01      	ldr	r2, [sp, #4]
 800102a:	429a      	cmp	r2, r3
 800102c:	d01f      	beq.n	800106e <__kernel_rem_pio2+0x386>
 800102e:	461a      	mov	r2, r3
 8001030:	f851 4f04 	ldr.w	r4, [r1, #4]!
 8001034:	1c53      	adds	r3, r2, #1
 8001036:	2c00      	cmp	r4, #0
 8001038:	d0f6      	beq.n	8001028 <__kernel_rem_pio2+0x340>
 800103a:	a90c      	add	r1, sp, #48	; 0x30
 800103c:	f1c4 7480 	rsb	r4, r4, #16777216	; 0x1000000
 8001040:	f841 4022 	str.w	r4, [r1, r2, lsl #2]
 8001044:	9901      	ldr	r1, [sp, #4]
 8001046:	4299      	cmp	r1, r3
 8001048:	dd10      	ble.n	800106c <__kernel_rem_pio2+0x384>
 800104a:	ac0c      	add	r4, sp, #48	; 0x30
 800104c:	aa0c      	add	r2, sp, #48	; 0x30
 800104e:	f852 2023 	ldr.w	r2, [r2, r3, lsl #2]
 8001052:	f06f 407f 	mvn.w	r0, #4278190080	; 0xff000000
 8001056:	eb04 0383 	add.w	r3, r4, r3, lsl #2
 800105a:	eb04 0181 	add.w	r1, r4, r1, lsl #2
 800105e:	e000      	b.n	8001062 <__kernel_rem_pio2+0x37a>
 8001060:	681a      	ldr	r2, [r3, #0]
 8001062:	1a82      	subs	r2, r0, r2
 8001064:	f843 2b04 	str.w	r2, [r3], #4
 8001068:	428b      	cmp	r3, r1
 800106a:	d1f9      	bne.n	8001060 <__kernel_rem_pio2+0x378>
 800106c:	2401      	movs	r4, #1
 800106e:	9b06      	ldr	r3, [sp, #24]
 8001070:	2b00      	cmp	r3, #0
 8001072:	dd0e      	ble.n	8001092 <__kernel_rem_pio2+0x3aa>
 8001074:	2b01      	cmp	r3, #1
 8001076:	f000 817d 	beq.w	8001374 <__kernel_rem_pio2+0x68c>
 800107a:	2b02      	cmp	r3, #2
 800107c:	d109      	bne.n	8001092 <__kernel_rem_pio2+0x3aa>
 800107e:	9b01      	ldr	r3, [sp, #4]
 8001080:	a90c      	add	r1, sp, #48	; 0x30
 8001082:	1e5a      	subs	r2, r3, #1
 8001084:	ab0c      	add	r3, sp, #48	; 0x30
 8001086:	f853 3022 	ldr.w	r3, [r3, r2, lsl #2]
 800108a:	f3c3 0315 	ubfx	r3, r3, #0, #22
 800108e:	f841 3022 	str.w	r3, [r1, r2, lsl #2]
 8001092:	2d02      	cmp	r5, #2
 8001094:	f47f af2a 	bne.w	8000eec <__kernel_rem_pio2+0x204>
 8001098:	4632      	mov	r2, r6
 800109a:	463b      	mov	r3, r7
 800109c:	2000      	movs	r0, #0
 800109e:	49be      	ldr	r1, [pc, #760]	; (8001398 <__kernel_rem_pio2+0x6b0>)
 80010a0:	f000 fd3e 	bl	8001b20 <__aeabi_dsub>
 80010a4:	4606      	mov	r6, r0
 80010a6:	460f      	mov	r7, r1
 80010a8:	2c00      	cmp	r4, #0
 80010aa:	f43f af1f 	beq.w	8000eec <__kernel_rem_pio2+0x204>
 80010ae:	9a06      	ldr	r2, [sp, #24]
 80010b0:	2000      	movs	r0, #0
 80010b2:	49b9      	ldr	r1, [pc, #740]	; (8001398 <__kernel_rem_pio2+0x6b0>)
 80010b4:	f000 fb8c 	bl	80017d0 <scalbn>
 80010b8:	4602      	mov	r2, r0
 80010ba:	460b      	mov	r3, r1
 80010bc:	4630      	mov	r0, r6
 80010be:	4639      	mov	r1, r7
 80010c0:	f000 fd2e 	bl	8001b20 <__aeabi_dsub>
 80010c4:	4606      	mov	r6, r0
 80010c6:	460f      	mov	r7, r1
 80010c8:	e710      	b.n	8000eec <__kernel_rem_pio2+0x204>
 80010ca:	2301      	movs	r3, #1
 80010cc:	2200      	movs	r2, #0
 80010ce:	e7b4      	b.n	800103a <__kernel_rem_pio2+0x352>
 80010d0:	2200      	movs	r2, #0
 80010d2:	4bb2      	ldr	r3, [pc, #712]	; (800139c <__kernel_rem_pio2+0x6b4>)
 80010d4:	f000 ff50 	bl	8001f78 <__aeabi_dcmpge>
 80010d8:	4605      	mov	r5, r0
 80010da:	2800      	cmp	r0, #0
 80010dc:	f43f af06 	beq.w	8000eec <__kernel_rem_pio2+0x204>
 80010e0:	9b01      	ldr	r3, [sp, #4]
 80010e2:	f108 0801 	add.w	r8, r8, #1
 80010e6:	2b00      	cmp	r3, #0
 80010e8:	bfc8      	it	gt
 80010ea:	2502      	movgt	r5, #2
 80010ec:	dc90      	bgt.n	8001010 <__kernel_rem_pio2+0x328>
 80010ee:	4632      	mov	r2, r6
 80010f0:	463b      	mov	r3, r7
 80010f2:	2000      	movs	r0, #0
 80010f4:	49a8      	ldr	r1, [pc, #672]	; (8001398 <__kernel_rem_pio2+0x6b0>)
 80010f6:	f000 fd13 	bl	8001b20 <__aeabi_dsub>
 80010fa:	2502      	movs	r5, #2
 80010fc:	4606      	mov	r6, r0
 80010fe:	460f      	mov	r7, r1
 8001100:	e6f4      	b.n	8000eec <__kernel_rem_pio2+0x204>
 8001102:	9b01      	ldr	r3, [sp, #4]
 8001104:	1c5a      	adds	r2, r3, #1
 8001106:	4691      	mov	r9, r2
 8001108:	9202      	str	r2, [sp, #8]
 800110a:	e723      	b.n	8000f54 <__kernel_rem_pio2+0x26c>
 800110c:	2400      	movs	r4, #0
 800110e:	2500      	movs	r5, #0
 8001110:	e65d      	b.n	8000dce <__kernel_rem_pio2+0xe6>
 8001112:	9a06      	ldr	r2, [sp, #24]
 8001114:	ab0c      	add	r3, sp, #48	; 0x30
 8001116:	f853 302a 	ldr.w	r3, [r3, sl, lsl #2]
 800111a:	3a18      	subs	r2, #24
 800111c:	f8cd 801c 	str.w	r8, [sp, #28]
 8001120:	9504      	str	r5, [sp, #16]
 8001122:	9206      	str	r2, [sp, #24]
 8001124:	b973      	cbnz	r3, 8001144 <__kernel_rem_pio2+0x45c>
 8001126:	9b01      	ldr	r3, [sp, #4]
 8001128:	a90c      	add	r1, sp, #48	; 0x30
 800112a:	f103 4380 	add.w	r3, r3, #1073741824	; 0x40000000
 800112e:	3b02      	subs	r3, #2
 8001130:	eb01 0383 	add.w	r3, r1, r3, lsl #2
 8001134:	f853 1904 	ldr.w	r1, [r3], #-4
 8001138:	f10a 3aff 	add.w	sl, sl, #4294967295	; 0xffffffff
 800113c:	3a18      	subs	r2, #24
 800113e:	2900      	cmp	r1, #0
 8001140:	d0f8      	beq.n	8001134 <__kernel_rem_pio2+0x44c>
 8001142:	9206      	str	r2, [sp, #24]
 8001144:	2000      	movs	r0, #0
 8001146:	9a06      	ldr	r2, [sp, #24]
 8001148:	4993      	ldr	r1, [pc, #588]	; (8001398 <__kernel_rem_pio2+0x6b0>)
 800114a:	f000 fb41 	bl	80017d0 <scalbn>
 800114e:	f1ba 0f00 	cmp.w	sl, #0
 8001152:	4604      	mov	r4, r0
 8001154:	460d      	mov	r5, r1
 8001156:	f2c0 81d7 	blt.w	8001508 <__kernel_rem_pio2+0x820>
 800115a:	ab70      	add	r3, sp, #448	; 0x1c0
 800115c:	eb03 0bca 	add.w	fp, r3, sl, lsl #3
 8001160:	aa0c      	add	r2, sp, #48	; 0x30
 8001162:	f10a 0301 	add.w	r3, sl, #1
 8001166:	9308      	str	r3, [sp, #32]
 8001168:	eb02 0883 	add.w	r8, r2, r3, lsl #2
 800116c:	ea4f 03ca 	mov.w	r3, sl, lsl #3
 8001170:	f10b 0908 	add.w	r9, fp, #8
 8001174:	9306      	str	r3, [sp, #24]
 8001176:	f858 0d04 	ldr.w	r0, [r8, #-4]!
 800117a:	f000 fe1f 	bl	8001dbc <__aeabi_i2d>
 800117e:	4622      	mov	r2, r4
 8001180:	462b      	mov	r3, r5
 8001182:	f000 fb9f 	bl	80018c4 <__aeabi_dmul>
 8001186:	4606      	mov	r6, r0
 8001188:	460f      	mov	r7, r1
 800118a:	4620      	mov	r0, r4
 800118c:	4629      	mov	r1, r5
 800118e:	4b84      	ldr	r3, [pc, #528]	; (80013a0 <__kernel_rem_pio2+0x6b8>)
 8001190:	2200      	movs	r2, #0
 8001192:	e969 6702 	strd	r6, r7, [r9, #-8]!
 8001196:	f000 fb95 	bl	80018c4 <__aeabi_dmul>
 800119a:	ab0c      	add	r3, sp, #48	; 0x30
 800119c:	4598      	cmp	r8, r3
 800119e:	4604      	mov	r4, r0
 80011a0:	460d      	mov	r5, r1
 80011a2:	d1e8      	bne.n	8001176 <__kernel_rem_pio2+0x48e>
 80011a4:	f04f 0900 	mov.w	r9, #0
 80011a8:	ab48      	add	r3, sp, #288	; 0x120
 80011aa:	e9cd b301 	strd	fp, r3, [sp, #4]
 80011ae:	f8cd a024 	str.w	sl, [sp, #36]	; 0x24
 80011b2:	46d3      	mov	fp, sl
 80011b4:	f8dd a014 	ldr.w	sl, [sp, #20]
 80011b8:	9303      	str	r3, [sp, #12]
 80011ba:	f1ba 0f00 	cmp.w	sl, #0
 80011be:	f2c0 80f8 	blt.w	80013b2 <__kernel_rem_pio2+0x6ca>
 80011c2:	a373      	add	r3, pc, #460	; (adr r3, 8001390 <__kernel_rem_pio2+0x6a8>)
 80011c4:	e9d3 2300 	ldrd	r2, r3, [r3]
 80011c8:	2400      	movs	r4, #0
 80011ca:	2500      	movs	r5, #0
 80011cc:	2600      	movs	r6, #0
 80011ce:	f8df 81d4 	ldr.w	r8, [pc, #468]	; 80013a4 <__kernel_rem_pio2+0x6bc>
 80011d2:	9f01      	ldr	r7, [sp, #4]
 80011d4:	e003      	b.n	80011de <__kernel_rem_pio2+0x4f6>
 80011d6:	454e      	cmp	r6, r9
 80011d8:	dc10      	bgt.n	80011fc <__kernel_rem_pio2+0x514>
 80011da:	e8f8 2302 	ldrd	r2, r3, [r8], #8
 80011de:	e8f7 0102 	ldrd	r0, r1, [r7], #8
 80011e2:	f000 fb6f 	bl	80018c4 <__aeabi_dmul>
 80011e6:	4602      	mov	r2, r0
 80011e8:	460b      	mov	r3, r1
 80011ea:	4620      	mov	r0, r4
 80011ec:	4629      	mov	r1, r5
 80011ee:	f000 fc99 	bl	8001b24 <__adddf3>
 80011f2:	3601      	adds	r6, #1
 80011f4:	45b2      	cmp	sl, r6
 80011f6:	4604      	mov	r4, r0
 80011f8:	460d      	mov	r5, r1
 80011fa:	daec      	bge.n	80011d6 <__kernel_rem_pio2+0x4ee>
 80011fc:	9b02      	ldr	r3, [sp, #8]
 80011fe:	f10b 3bff 	add.w	fp, fp, #4294967295	; 0xffffffff
 8001202:	e8e3 4502 	strd	r4, r5, [r3], #8
 8001206:	9302      	str	r3, [sp, #8]
 8001208:	9b01      	ldr	r3, [sp, #4]
 800120a:	f1bb 3fff 	cmp.w	fp, #4294967295	; 0xffffffff
 800120e:	f1a3 0308 	sub.w	r3, r3, #8
 8001212:	f109 0901 	add.w	r9, r9, #1
 8001216:	9301      	str	r3, [sp, #4]
 8001218:	d1cf      	bne.n	80011ba <__kernel_rem_pio2+0x4d2>
 800121a:	9ba2      	ldr	r3, [sp, #648]	; 0x288
 800121c:	f8dd a024 	ldr.w	sl, [sp, #36]	; 0x24
 8001220:	2b02      	cmp	r3, #2
 8001222:	dc23      	bgt.n	800126c <__kernel_rem_pio2+0x584>
 8001224:	2b00      	cmp	r3, #0
 8001226:	f300 80fc 	bgt.w	8001422 <__kernel_rem_pio2+0x73a>
 800122a:	d118      	bne.n	800125e <__kernel_rem_pio2+0x576>
 800122c:	9ba2      	ldr	r3, [sp, #648]	; 0x288
 800122e:	9d06      	ldr	r5, [sp, #24]
 8001230:	461c      	mov	r4, r3
 8001232:	9e03      	ldr	r6, [sp, #12]
 8001234:	3508      	adds	r5, #8
 8001236:	4435      	add	r5, r6
 8001238:	4618      	mov	r0, r3
 800123a:	e975 2302 	ldrd	r2, r3, [r5, #-8]!
 800123e:	4621      	mov	r1, r4
 8001240:	f000 fc70 	bl	8001b24 <__adddf3>
 8001244:	42b5      	cmp	r5, r6
 8001246:	4603      	mov	r3, r0
 8001248:	460c      	mov	r4, r1
 800124a:	d1f5      	bne.n	8001238 <__kernel_rem_pio2+0x550>
 800124c:	9a04      	ldr	r2, [sp, #16]
 800124e:	b10a      	cbz	r2, 8001254 <__kernel_rem_pio2+0x56c>
 8001250:	f104 4400 	add.w	r4, r4, #2147483648	; 0x80000000
 8001254:	4618      	mov	r0, r3
 8001256:	4621      	mov	r1, r4
 8001258:	9b0b      	ldr	r3, [sp, #44]	; 0x2c
 800125a:	e9c3 0100 	strd	r0, r1, [r3]
 800125e:	9b07      	ldr	r3, [sp, #28]
 8001260:	f003 0007 	and.w	r0, r3, #7
 8001264:	f50d 7d19 	add.w	sp, sp, #612	; 0x264
 8001268:	e8bd 8ff0 	ldmia.w	sp!, {r4, r5, r6, r7, r8, r9, sl, fp, pc}
 800126c:	9ba2      	ldr	r3, [sp, #648]	; 0x288
 800126e:	2b03      	cmp	r3, #3
 8001270:	d1f5      	bne.n	800125e <__kernel_rem_pio2+0x576>
 8001272:	f1ba 0f00 	cmp.w	sl, #0
 8001276:	f000 815d 	beq.w	8001534 <__kernel_rem_pio2+0x84c>
 800127a:	9b03      	ldr	r3, [sp, #12]
 800127c:	9a06      	ldr	r2, [sp, #24]
 800127e:	4413      	add	r3, r2
 8001280:	469b      	mov	fp, r3
 8001282:	e9d3 4500 	ldrd	r4, r5, [r3]
 8001286:	e95b 6702 	ldrd	r6, r7, [fp, #-8]
 800128a:	4620      	mov	r0, r4
 800128c:	4629      	mov	r1, r5
 800128e:	4632      	mov	r2, r6
 8001290:	463b      	mov	r3, r7
 8001292:	f000 fc47 	bl	8001b24 <__adddf3>
 8001296:	46a0      	mov	r8, r4
 8001298:	46a9      	mov	r9, r5
 800129a:	4604      	mov	r4, r0
 800129c:	460d      	mov	r5, r1
 800129e:	4622      	mov	r2, r4
 80012a0:	462b      	mov	r3, r5
 80012a2:	4630      	mov	r0, r6
 80012a4:	4639      	mov	r1, r7
 80012a6:	f000 fc3b 	bl	8001b20 <__aeabi_dsub>
 80012aa:	464b      	mov	r3, r9
 80012ac:	4642      	mov	r2, r8
 80012ae:	f000 fc39 	bl	8001b24 <__adddf3>
 80012b2:	e9cb 0100 	strd	r0, r1, [fp]
 80012b6:	e96b 4502 	strd	r4, r5, [fp, #-8]!
 80012ba:	9b03      	ldr	r3, [sp, #12]
 80012bc:	455b      	cmp	r3, fp
 80012be:	d1e2      	bne.n	8001286 <__kernel_rem_pio2+0x59e>
 80012c0:	f1ba 0f01 	cmp.w	sl, #1
 80012c4:	f340 8136 	ble.w	8001534 <__kernel_rem_pio2+0x84c>
 80012c8:	9b06      	ldr	r3, [sp, #24]
 80012ca:	9a03      	ldr	r2, [sp, #12]
 80012cc:	f50d 7b94 	add.w	fp, sp, #296	; 0x128
 80012d0:	4413      	add	r3, r2
 80012d2:	469a      	mov	sl, r3
 80012d4:	e9d3 4500 	ldrd	r4, r5, [r3]
 80012d8:	9301      	str	r3, [sp, #4]
 80012da:	e95a 6702 	ldrd	r6, r7, [sl, #-8]
 80012de:	4620      	mov	r0, r4
 80012e0:	4629      	mov	r1, r5
 80012e2:	4632      	mov	r2, r6
 80012e4:	463b      	mov	r3, r7
 80012e6:	f000 fc1d 	bl	8001b24 <__adddf3>
 80012ea:	46a0      	mov	r8, r4
 80012ec:	46a9      	mov	r9, r5
 80012ee:	4604      	mov	r4, r0
 80012f0:	460d      	mov	r5, r1
 80012f2:	4622      	mov	r2, r4
 80012f4:	462b      	mov	r3, r5
 80012f6:	4630      	mov	r0, r6
 80012f8:	4639      	mov	r1, r7
 80012fa:	f000 fc11 	bl	8001b20 <__aeabi_dsub>
 80012fe:	4642      	mov	r2, r8
 8001300:	464b      	mov	r3, r9
 8001302:	f000 fc0f 	bl	8001b24 <__adddf3>
 8001306:	e9ca 0100 	strd	r0, r1, [sl]
 800130a:	e96a 4502 	strd	r4, r5, [sl, #-8]!
 800130e:	45d3      	cmp	fp, sl
 8001310:	d1e3      	bne.n	80012da <__kernel_rem_pio2+0x5f2>
 8001312:	2300      	movs	r3, #0
 8001314:	4619      	mov	r1, r3
 8001316:	9e01      	ldr	r6, [sp, #4]
 8001318:	9a03      	ldr	r2, [sp, #12]
 800131a:	3608      	adds	r6, #8
 800131c:	f102 0710 	add.w	r7, r2, #16
 8001320:	461c      	mov	r4, r3
 8001322:	e976 2302 	ldrd	r2, r3, [r6, #-8]!
 8001326:	4620      	mov	r0, r4
 8001328:	f000 fbfc 	bl	8001b24 <__adddf3>
 800132c:	42b7      	cmp	r7, r6
 800132e:	4603      	mov	r3, r0
 8001330:	d1f6      	bne.n	8001320 <__kernel_rem_pio2+0x638>
 8001332:	9a03      	ldr	r2, [sp, #12]
 8001334:	4614      	mov	r4, r2
 8001336:	4610      	mov	r0, r2
 8001338:	f8d4 e00c 	ldr.w	lr, [r4, #12]
 800133c:	9c04      	ldr	r4, [sp, #16]
 800133e:	f8d2 c000 	ldr.w	ip, [r2]
 8001342:	6880      	ldr	r0, [r0, #8]
 8001344:	6852      	ldr	r2, [r2, #4]
 8001346:	2c00      	cmp	r4, #0
 8001348:	f040 80b4 	bne.w	80014b4 <__kernel_rem_pio2+0x7cc>
 800134c:	4606      	mov	r6, r0
 800134e:	461c      	mov	r4, r3
 8001350:	46e0      	mov	r8, ip
 8001352:	4691      	mov	r9, r2
 8001354:	4677      	mov	r7, lr
 8001356:	460d      	mov	r5, r1
 8001358:	9b0b      	ldr	r3, [sp, #44]	; 0x2c
 800135a:	e9c3 8900 	strd	r8, r9, [r3]
 800135e:	e9c3 6702 	strd	r6, r7, [r3, #8]
 8001362:	e9c3 4504 	strd	r4, r5, [r3, #16]
 8001366:	9b07      	ldr	r3, [sp, #28]
 8001368:	f003 0007 	and.w	r0, r3, #7
 800136c:	f50d 7d19 	add.w	sp, sp, #612	; 0x264
 8001370:	e8bd 8ff0 	ldmia.w	sp!, {r4, r5, r6, r7, r8, r9, sl, fp, pc}
 8001374:	9b01      	ldr	r3, [sp, #4]
 8001376:	a90c      	add	r1, sp, #48	; 0x30
 8001378:	1e5a      	subs	r2, r3, #1
 800137a:	ab0c      	add	r3, sp, #48	; 0x30
 800137c:	f853 3022 	ldr.w	r3, [r3, r2, lsl #2]
 8001380:	f3c3 0316 	ubfx	r3, r3, #0, #23
 8001384:	f841 3022 	str.w	r3, [r1, r2, lsl #2]
 8001388:	e683      	b.n	8001092 <__kernel_rem_pio2+0x3aa>
 800138a:	bf00      	nop
 800138c:	f3af 8000 	nop.w
 8001390:	40000000 	.word	0x40000000
 8001394:	3ff921fb 	.word	0x3ff921fb
 8001398:	3ff00000 	.word	0x3ff00000
 800139c:	3fe00000 	.word	0x3fe00000
 80013a0:	3e700000 	.word	0x3e700000
 80013a4:	08002c28 	.word	0x08002c28
 80013a8:	2100      	movs	r1, #0
 80013aa:	f06f 0317 	mvn.w	r3, #23
 80013ae:	9107      	str	r1, [sp, #28]
 80013b0:	e4b9      	b.n	8000d26 <__kernel_rem_pio2+0x3e>
 80013b2:	2400      	movs	r4, #0
 80013b4:	2500      	movs	r5, #0
 80013b6:	e721      	b.n	80011fc <__kernel_rem_pio2+0x514>
 80013b8:	2400      	movs	r4, #0
 80013ba:	e658      	b.n	800106e <__kernel_rem_pio2+0x386>
 80013bc:	4639      	mov	r1, r7
 80013be:	9f06      	ldr	r7, [sp, #24]
 80013c0:	4630      	mov	r0, r6
 80013c2:	427a      	negs	r2, r7
 80013c4:	9504      	str	r5, [sp, #16]
 80013c6:	f8cd 801c 	str.w	r8, [sp, #28]
 80013ca:	f000 fa01 	bl	80017d0 <scalbn>
 80013ce:	2200      	movs	r2, #0
 80013d0:	4b5a      	ldr	r3, [pc, #360]	; (800153c <__kernel_rem_pio2+0x854>)
 80013d2:	4604      	mov	r4, r0
 80013d4:	460d      	mov	r5, r1
 80013d6:	f000 fdcf 	bl	8001f78 <__aeabi_dcmpge>
 80013da:	2800      	cmp	r0, #0
 80013dc:	d060      	beq.n	80014a0 <__kernel_rem_pio2+0x7b8>
 80013de:	2200      	movs	r2, #0
 80013e0:	4b57      	ldr	r3, [pc, #348]	; (8001540 <__kernel_rem_pio2+0x858>)
 80013e2:	4620      	mov	r0, r4
 80013e4:	4629      	mov	r1, r5
 80013e6:	f000 fa6d 	bl	80018c4 <__aeabi_dmul>
 80013ea:	f000 fdd9 	bl	8001fa0 <__aeabi_d2iz>
 80013ee:	4606      	mov	r6, r0
 80013f0:	f000 fce4 	bl	8001dbc <__aeabi_i2d>
 80013f4:	2200      	movs	r2, #0
 80013f6:	4b51      	ldr	r3, [pc, #324]	; (800153c <__kernel_rem_pio2+0x854>)
 80013f8:	f000 fa64 	bl	80018c4 <__aeabi_dmul>
 80013fc:	4602      	mov	r2, r0
 80013fe:	460b      	mov	r3, r1
 8001400:	4620      	mov	r0, r4
 8001402:	4629      	mov	r1, r5
 8001404:	f000 fb8c 	bl	8001b20 <__aeabi_dsub>
 8001408:	f000 fdca 	bl	8001fa0 <__aeabi_d2iz>
 800140c:	9b01      	ldr	r3, [sp, #4]
 800140e:	aa0c      	add	r2, sp, #48	; 0x30
 8001410:	f103 0a01 	add.w	sl, r3, #1
 8001414:	3718      	adds	r7, #24
 8001416:	f842 0023 	str.w	r0, [r2, r3, lsl #2]
 800141a:	9706      	str	r7, [sp, #24]
 800141c:	f842 602a 	str.w	r6, [r2, sl, lsl #2]
 8001420:	e690      	b.n	8001144 <__kernel_rem_pio2+0x45c>
 8001422:	2600      	movs	r6, #0
 8001424:	9b03      	ldr	r3, [sp, #12]
 8001426:	9908      	ldr	r1, [sp, #32]
 8001428:	4698      	mov	r8, r3
 800142a:	eb03 07c1 	add.w	r7, r3, r1, lsl #3
 800142e:	4631      	mov	r1, r6
 8001430:	e977 2302 	ldrd	r2, r3, [r7, #-8]!
 8001434:	4630      	mov	r0, r6
 8001436:	f000 fb75 	bl	8001b24 <__adddf3>
 800143a:	45b8      	cmp	r8, r7
 800143c:	4606      	mov	r6, r0
 800143e:	d1f7      	bne.n	8001430 <__kernel_rem_pio2+0x748>
 8001440:	9b04      	ldr	r3, [sp, #16]
 8001442:	2b00      	cmp	r3, #0
 8001444:	d14b      	bne.n	80014de <__kernel_rem_pio2+0x7f6>
 8001446:	4634      	mov	r4, r6
 8001448:	460d      	mov	r5, r1
 800144a:	4632      	mov	r2, r6
 800144c:	9e0b      	ldr	r6, [sp, #44]	; 0x2c
 800144e:	460b      	mov	r3, r1
 8001450:	e9dd 0148 	ldrd	r0, r1, [sp, #288]	; 0x120
 8001454:	e9c6 4500 	strd	r4, r5, [r6]
 8001458:	f000 fb62 	bl	8001b20 <__aeabi_dsub>
 800145c:	f1ba 0f00 	cmp.w	sl, #0
 8001460:	4603      	mov	r3, r0
 8001462:	460e      	mov	r6, r1
 8001464:	dd10      	ble.n	8001488 <__kernel_rem_pio2+0x7a0>
 8001466:	2401      	movs	r4, #1
 8001468:	ad48      	add	r5, sp, #288	; 0x120
 800146a:	4618      	mov	r0, r3
 800146c:	e9f5 2302 	ldrd	r2, r3, [r5, #8]!
 8001470:	4631      	mov	r1, r6
 8001472:	f000 fb57 	bl	8001b24 <__adddf3>
 8001476:	3401      	adds	r4, #1
 8001478:	45a2      	cmp	sl, r4
 800147a:	4603      	mov	r3, r0
 800147c:	460e      	mov	r6, r1
 800147e:	daf4      	bge.n	800146a <__kernel_rem_pio2+0x782>
 8001480:	9a04      	ldr	r2, [sp, #16]
 8001482:	b10a      	cbz	r2, 8001488 <__kernel_rem_pio2+0x7a0>
 8001484:	f106 4600 	add.w	r6, r6, #2147483648	; 0x80000000
 8001488:	4618      	mov	r0, r3
 800148a:	4631      	mov	r1, r6
 800148c:	9b0b      	ldr	r3, [sp, #44]	; 0x2c
 800148e:	e9c3 0102 	strd	r0, r1, [r3, #8]
 8001492:	9b07      	ldr	r3, [sp, #28]
 8001494:	f003 0007 	and.w	r0, r3, #7
 8001498:	f50d 7d19 	add.w	sp, sp, #612	; 0x264
 800149c:	e8bd 8ff0 	ldmia.w	sp!, {r4, r5, r6, r7, r8, r9, sl, fp, pc}
 80014a0:	4620      	mov	r0, r4
 80014a2:	4629      	mov	r1, r5
 80014a4:	f000 fd7c 	bl	8001fa0 <__aeabi_d2iz>
 80014a8:	9b01      	ldr	r3, [sp, #4]
 80014aa:	aa0c      	add	r2, sp, #48	; 0x30
 80014ac:	469a      	mov	sl, r3
 80014ae:	f842 0023 	str.w	r0, [r2, r3, lsl #2]
 80014b2:	e647      	b.n	8001144 <__kernel_rem_pio2+0x45c>
 80014b4:	9d0b      	ldr	r5, [sp, #44]	; 0x2c
 80014b6:	f102 4200 	add.w	r2, r2, #2147483648	; 0x80000000
 80014ba:	612b      	str	r3, [r5, #16]
 80014bc:	9b07      	ldr	r3, [sp, #28]
 80014be:	f10e 4400 	add.w	r4, lr, #2147483648	; 0x80000000
 80014c2:	f101 4100 	add.w	r1, r1, #2147483648	; 0x80000000
 80014c6:	60a8      	str	r0, [r5, #8]
 80014c8:	f003 0007 	and.w	r0, r3, #7
 80014cc:	606a      	str	r2, [r5, #4]
 80014ce:	60ec      	str	r4, [r5, #12]
 80014d0:	6169      	str	r1, [r5, #20]
 80014d2:	f8c5 c000 	str.w	ip, [r5]
 80014d6:	f50d 7d19 	add.w	sp, sp, #612	; 0x264
 80014da:	e8bd 8ff0 	ldmia.w	sp!, {r4, r5, r6, r7, r8, r9, sl, fp, pc}
 80014de:	9d0b      	ldr	r5, [sp, #44]	; 0x2c
 80014e0:	f101 4400 	add.w	r4, r1, #2147483648	; 0x80000000
 80014e4:	460b      	mov	r3, r1
 80014e6:	e9dd 0148 	ldrd	r0, r1, [sp, #288]	; 0x120
 80014ea:	4632      	mov	r2, r6
 80014ec:	e9c5 6400 	strd	r6, r4, [r5]
 80014f0:	f000 fb16 	bl	8001b20 <__aeabi_dsub>
 80014f4:	f1ba 0f00 	cmp.w	sl, #0
 80014f8:	4603      	mov	r3, r0
 80014fa:	460e      	mov	r6, r1
 80014fc:	dcb3      	bgt.n	8001466 <__kernel_rem_pio2+0x77e>
 80014fe:	e7c1      	b.n	8001484 <__kernel_rem_pio2+0x79c>
 8001500:	9b08      	ldr	r3, [sp, #32]
 8001502:	00db      	lsls	r3, r3, #3
 8001504:	9302      	str	r3, [sp, #8]
 8001506:	e46b      	b.n	8000de0 <__kernel_rem_pio2+0xf8>
 8001508:	9ba2      	ldr	r3, [sp, #648]	; 0x288
 800150a:	2b02      	cmp	r3, #2
 800150c:	dc06      	bgt.n	800151c <__kernel_rem_pio2+0x834>
 800150e:	2b00      	cmp	r3, #0
 8001510:	dc0d      	bgt.n	800152e <__kernel_rem_pio2+0x846>
 8001512:	f47f aea4 	bne.w	800125e <__kernel_rem_pio2+0x576>
 8001516:	9ba2      	ldr	r3, [sp, #648]	; 0x288
 8001518:	461c      	mov	r4, r3
 800151a:	e697      	b.n	800124c <__kernel_rem_pio2+0x564>
 800151c:	9ba2      	ldr	r3, [sp, #648]	; 0x288
 800151e:	2b03      	cmp	r3, #3
 8001520:	f47f ae9d 	bne.w	800125e <__kernel_rem_pio2+0x576>
 8001524:	2300      	movs	r3, #0
 8001526:	aa48      	add	r2, sp, #288	; 0x120
 8001528:	4619      	mov	r1, r3
 800152a:	9203      	str	r2, [sp, #12]
 800152c:	e701      	b.n	8001332 <__kernel_rem_pio2+0x64a>
 800152e:	2600      	movs	r6, #0
 8001530:	4631      	mov	r1, r6
 8001532:	e785      	b.n	8001440 <__kernel_rem_pio2+0x758>
 8001534:	2300      	movs	r3, #0
 8001536:	4619      	mov	r1, r3
 8001538:	e6fb      	b.n	8001332 <__kernel_rem_pio2+0x64a>
 800153a:	bf00      	nop
 800153c:	41700000 	.word	0x41700000
 8001540:	3e700000 	.word	0x3e700000
 8001544:	00000000 	.word	0x00000000

08001548 <__kernel_sin>:
 8001548:	e92d 4ff0 	stmdb	sp!, {r4, r5, r6, r7, r8, r9, sl, fp, lr}
 800154c:	f021 4600 	bic.w	r6, r1, #2147483648	; 0x80000000
 8001550:	b085      	sub	sp, #20
 8001552:	f1b6 5f79 	cmp.w	r6, #1044381696	; 0x3e400000
 8001556:	4604      	mov	r4, r0
 8001558:	e9cd 2302 	strd	r2, r3, [sp, #8]
 800155c:	9101      	str	r1, [sp, #4]
 800155e:	da04      	bge.n	800156a <__kernel_sin+0x22>
 8001560:	f000 fd1e 	bl	8001fa0 <__aeabi_d2iz>
 8001564:	2800      	cmp	r0, #0
 8001566:	f000 808f 	beq.w	8001688 <__kernel_sin+0x140>
 800156a:	9b01      	ldr	r3, [sp, #4]
 800156c:	4622      	mov	r2, r4
 800156e:	4619      	mov	r1, r3
 8001570:	4620      	mov	r0, r4
 8001572:	f000 f9a7 	bl	80018c4 <__aeabi_dmul>
 8001576:	f8dd 9004 	ldr.w	r9, [sp, #4]
 800157a:	4606      	mov	r6, r0
 800157c:	460f      	mov	r7, r1
 800157e:	4602      	mov	r2, r0
 8001580:	460b      	mov	r3, r1
 8001582:	4620      	mov	r0, r4
 8001584:	4649      	mov	r1, r9
 8001586:	f000 f99d 	bl	80018c4 <__aeabi_dmul>
 800158a:	a343      	add	r3, pc, #268	; (adr r3, 8001698 <__kernel_sin+0x150>)
 800158c:	e9d3 2300 	ldrd	r2, r3, [r3]
 8001590:	4682      	mov	sl, r0
 8001592:	468b      	mov	fp, r1
 8001594:	4630      	mov	r0, r6
 8001596:	4639      	mov	r1, r7
 8001598:	f000 f994 	bl	80018c4 <__aeabi_dmul>
 800159c:	a340      	add	r3, pc, #256	; (adr r3, 80016a0 <__kernel_sin+0x158>)
 800159e:	e9d3 2300 	ldrd	r2, r3, [r3]
 80015a2:	f000 fabd 	bl	8001b20 <__aeabi_dsub>
 80015a6:	4632      	mov	r2, r6
 80015a8:	463b      	mov	r3, r7
 80015aa:	f000 f98b 	bl	80018c4 <__aeabi_dmul>
 80015ae:	a33e      	add	r3, pc, #248	; (adr r3, 80016a8 <__kernel_sin+0x160>)
 80015b0:	e9d3 2300 	ldrd	r2, r3, [r3]
 80015b4:	f000 fab6 	bl	8001b24 <__adddf3>
 80015b8:	4632      	mov	r2, r6
 80015ba:	463b      	mov	r3, r7
 80015bc:	f000 f982 	bl	80018c4 <__aeabi_dmul>
 80015c0:	a33b      	add	r3, pc, #236	; (adr r3, 80016b0 <__kernel_sin+0x168>)
 80015c2:	e9d3 2300 	ldrd	r2, r3, [r3]
 80015c6:	f000 faab 	bl	8001b20 <__aeabi_dsub>
 80015ca:	4632      	mov	r2, r6
 80015cc:	463b      	mov	r3, r7
 80015ce:	f000 f979 	bl	80018c4 <__aeabi_dmul>
 80015d2:	a339      	add	r3, pc, #228	; (adr r3, 80016b8 <__kernel_sin+0x170>)
 80015d4:	e9d3 2300 	ldrd	r2, r3, [r3]
 80015d8:	f000 faa4 	bl	8001b24 <__adddf3>
 80015dc:	9b0e      	ldr	r3, [sp, #56]	; 0x38
 80015de:	4680      	mov	r8, r0
 80015e0:	4689      	mov	r9, r1
 80015e2:	b3bb      	cbz	r3, 8001654 <__kernel_sin+0x10c>
 80015e4:	e9dd 0102 	ldrd	r0, r1, [sp, #8]
 80015e8:	2200      	movs	r2, #0
 80015ea:	4b37      	ldr	r3, [pc, #220]	; (80016c8 <__kernel_sin+0x180>)
 80015ec:	f000 f96a 	bl	80018c4 <__aeabi_dmul>
 80015f0:	4642      	mov	r2, r8
 80015f2:	464b      	mov	r3, r9
 80015f4:	4680      	mov	r8, r0
 80015f6:	4689      	mov	r9, r1
 80015f8:	4650      	mov	r0, sl
 80015fa:	4659      	mov	r1, fp
 80015fc:	f000 f962 	bl	80018c4 <__aeabi_dmul>
 8001600:	4602      	mov	r2, r0
 8001602:	460b      	mov	r3, r1
 8001604:	4640      	mov	r0, r8
 8001606:	4649      	mov	r1, r9
 8001608:	f000 fa8a 	bl	8001b20 <__aeabi_dsub>
 800160c:	4632      	mov	r2, r6
 800160e:	463b      	mov	r3, r7
 8001610:	f000 f958 	bl	80018c4 <__aeabi_dmul>
 8001614:	e9dd 2302 	ldrd	r2, r3, [sp, #8]
 8001618:	f000 fa82 	bl	8001b20 <__aeabi_dsub>
 800161c:	a328      	add	r3, pc, #160	; (adr r3, 80016c0 <__kernel_sin+0x178>)
 800161e:	e9d3 2300 	ldrd	r2, r3, [r3]
 8001622:	4606      	mov	r6, r0
 8001624:	460f      	mov	r7, r1
 8001626:	4650      	mov	r0, sl
 8001628:	4659      	mov	r1, fp
 800162a:	f000 f94b 	bl	80018c4 <__aeabi_dmul>
 800162e:	4602      	mov	r2, r0
 8001630:	460b      	mov	r3, r1
 8001632:	4630      	mov	r0, r6
 8001634:	4639      	mov	r1, r7
 8001636:	f000 fa75 	bl	8001b24 <__adddf3>
 800163a:	4602      	mov	r2, r0
 800163c:	460b      	mov	r3, r1
 800163e:	4620      	mov	r0, r4
 8001640:	9901      	ldr	r1, [sp, #4]
 8001642:	f000 fa6d 	bl	8001b20 <__aeabi_dsub>
 8001646:	4604      	mov	r4, r0
 8001648:	460d      	mov	r5, r1
 800164a:	4620      	mov	r0, r4
 800164c:	4629      	mov	r1, r5
 800164e:	b005      	add	sp, #20
 8001650:	e8bd 8ff0 	ldmia.w	sp!, {r4, r5, r6, r7, r8, r9, sl, fp, pc}
 8001654:	4602      	mov	r2, r0
 8001656:	460b      	mov	r3, r1
 8001658:	4630      	mov	r0, r6
 800165a:	4639      	mov	r1, r7
 800165c:	f000 f932 	bl	80018c4 <__aeabi_dmul>
 8001660:	a317      	add	r3, pc, #92	; (adr r3, 80016c0 <__kernel_sin+0x178>)
 8001662:	e9d3 2300 	ldrd	r2, r3, [r3]
 8001666:	f000 fa5b 	bl	8001b20 <__aeabi_dsub>
 800166a:	4652      	mov	r2, sl
 800166c:	465b      	mov	r3, fp
 800166e:	f000 f929 	bl	80018c4 <__aeabi_dmul>
 8001672:	4622      	mov	r2, r4
 8001674:	9b01      	ldr	r3, [sp, #4]
 8001676:	f000 fa55 	bl	8001b24 <__adddf3>
 800167a:	4604      	mov	r4, r0
 800167c:	460d      	mov	r5, r1
 800167e:	4620      	mov	r0, r4
 8001680:	4629      	mov	r1, r5
 8001682:	b005      	add	sp, #20
 8001684:	e8bd 8ff0 	ldmia.w	sp!, {r4, r5, r6, r7, r8, r9, sl, fp, pc}
 8001688:	9d01      	ldr	r5, [sp, #4]
 800168a:	4620      	mov	r0, r4
 800168c:	4629      	mov	r1, r5
 800168e:	b005      	add	sp, #20
 8001690:	e8bd 8ff0 	ldmia.w	sp!, {r4, r5, r6, r7, r8, r9, sl, fp, pc}
 8001694:	f3af 8000 	nop.w
 8001698:	5acfd57c 	.word	0x5acfd57c
 800169c:	3de5d93a 	.word	0x3de5d93a
 80016a0:	8a2b9ceb 	.word	0x8a2b9ceb
 80016a4:	3e5ae5e6 	.word	0x3e5ae5e6
 80016a8:	57b1fe7d 	.word	0x57b1fe7d
 80016ac:	3ec71de3 	.word	0x3ec71de3
 80016b0:	19c161d5 	.word	0x19c161d5
 80016b4:	3f2a01a0 	.word	0x3f2a01a0
 80016b8:	1110f8a6 	.word	0x1110f8a6
 80016bc:	3f811111 	.word	0x3f811111
 80016c0:	55555549 	.word	0x55555549
 80016c4:	3fc55555 	.word	0x3fc55555
 80016c8:	3fe00000 	.word	0x3fe00000

080016cc <fabs>:
 80016cc:	f021 4100 	bic.w	r1, r1, #2147483648	; 0x80000000
 80016d0:	4770      	bx	lr
 80016d2:	bf00      	nop
 80016d4:	0000      	movs	r0, r0
	...

080016d8 <floor>:
 80016d8:	b5f8      	push	{r3, r4, r5, r6, r7, lr}
 80016da:	f3c1 570a 	ubfx	r7, r1, #20, #11
 80016de:	f2a7 35ff 	subw	r5, r7, #1023	; 0x3ff
 80016e2:	2d13      	cmp	r5, #19
 80016e4:	460b      	mov	r3, r1
 80016e6:	460c      	mov	r4, r1
 80016e8:	4602      	mov	r2, r0
 80016ea:	4606      	mov	r6, r0
 80016ec:	dc20      	bgt.n	8001730 <floor+0x58>
 80016ee:	2d00      	cmp	r5, #0
 80016f0:	db40      	blt.n	8001774 <floor+0x9c>
 80016f2:	4f35      	ldr	r7, [pc, #212]	; (80017c8 <floor+0xf0>)
 80016f4:	412f      	asrs	r7, r5
 80016f6:	ea01 0c07 	and.w	ip, r1, r7
 80016fa:	ea5c 0c00 	orrs.w	ip, ip, r0
 80016fe:	d014      	beq.n	800172a <floor+0x52>
 8001700:	a32f      	add	r3, pc, #188	; (adr r3, 80017c0 <floor+0xe8>)
 8001702:	e9d3 2300 	ldrd	r2, r3, [r3]
 8001706:	f000 fa0d 	bl	8001b24 <__adddf3>
 800170a:	2200      	movs	r2, #0
 800170c:	2300      	movs	r3, #0
 800170e:	f000 fc3d 	bl	8001f8c <__aeabi_dcmpgt>
 8001712:	b140      	cbz	r0, 8001726 <floor+0x4e>
 8001714:	2c00      	cmp	r4, #0
 8001716:	da03      	bge.n	8001720 <floor+0x48>
 8001718:	f44f 1380 	mov.w	r3, #1048576	; 0x100000
 800171c:	412b      	asrs	r3, r5
 800171e:	441c      	add	r4, r3
 8001720:	2600      	movs	r6, #0
 8001722:	ea24 0407 	bic.w	r4, r4, r7
 8001726:	4632      	mov	r2, r6
 8001728:	4623      	mov	r3, r4
 800172a:	4610      	mov	r0, r2
 800172c:	4619      	mov	r1, r3
 800172e:	bdf8      	pop	{r3, r4, r5, r6, r7, pc}
 8001730:	2d33      	cmp	r5, #51	; 0x33
 8001732:	dd07      	ble.n	8001744 <floor+0x6c>
 8001734:	f5b5 6f80 	cmp.w	r5, #1024	; 0x400
 8001738:	d1f7      	bne.n	800172a <floor+0x52>
 800173a:	f000 f9f3 	bl	8001b24 <__adddf3>
 800173e:	4602      	mov	r2, r0
 8001740:	460b      	mov	r3, r1
 8001742:	e7f2      	b.n	800172a <floor+0x52>
 8001744:	f04f 3cff 	mov.w	ip, #4294967295	; 0xffffffff
 8001748:	f2a7 4713 	subw	r7, r7, #1043	; 0x413
 800174c:	fa2c f707 	lsr.w	r7, ip, r7
 8001750:	4207      	tst	r7, r0
 8001752:	d0ea      	beq.n	800172a <floor+0x52>
 8001754:	a31a      	add	r3, pc, #104	; (adr r3, 80017c0 <floor+0xe8>)
 8001756:	e9d3 2300 	ldrd	r2, r3, [r3]
 800175a:	f000 f9e3 	bl	8001b24 <__adddf3>
 800175e:	2200      	movs	r2, #0
 8001760:	2300      	movs	r3, #0
 8001762:	f000 fc13 	bl	8001f8c <__aeabi_dcmpgt>
 8001766:	2800      	cmp	r0, #0
 8001768:	d0dd      	beq.n	8001726 <floor+0x4e>
 800176a:	2c00      	cmp	r4, #0
 800176c:	db1b      	blt.n	80017a6 <floor+0xce>
 800176e:	ea26 0607 	bic.w	r6, r6, r7
 8001772:	e7d8      	b.n	8001726 <floor+0x4e>
 8001774:	a312      	add	r3, pc, #72	; (adr r3, 80017c0 <floor+0xe8>)
 8001776:	e9d3 2300 	ldrd	r2, r3, [r3]
 800177a:	f000 f9d3 	bl	8001b24 <__adddf3>
 800177e:	2200      	movs	r2, #0
 8001780:	2300      	movs	r3, #0
 8001782:	f000 fc03 	bl	8001f8c <__aeabi_dcmpgt>
 8001786:	2800      	cmp	r0, #0
 8001788:	d0cd      	beq.n	8001726 <floor+0x4e>
 800178a:	2c00      	cmp	r4, #0
 800178c:	db02      	blt.n	8001794 <floor+0xbc>
 800178e:	2600      	movs	r6, #0
 8001790:	4634      	mov	r4, r6
 8001792:	e7c8      	b.n	8001726 <floor+0x4e>
 8001794:	f024 4300 	bic.w	r3, r4, #2147483648	; 0x80000000
 8001798:	4a0c      	ldr	r2, [pc, #48]	; (80017cc <floor+0xf4>)
 800179a:	431e      	orrs	r6, r3
 800179c:	2e00      	cmp	r6, #0
 800179e:	bf18      	it	ne
 80017a0:	4614      	movne	r4, r2
 80017a2:	2600      	movs	r6, #0
 80017a4:	e7bf      	b.n	8001726 <floor+0x4e>
 80017a6:	2d14      	cmp	r5, #20
 80017a8:	d008      	beq.n	80017bc <floor+0xe4>
 80017aa:	2201      	movs	r2, #1
 80017ac:	f1c5 0334 	rsb	r3, r5, #52	; 0x34
 80017b0:	fa02 f303 	lsl.w	r3, r2, r3
 80017b4:	199e      	adds	r6, r3, r6
 80017b6:	bf28      	it	cs
 80017b8:	18a4      	addcs	r4, r4, r2
 80017ba:	e7d8      	b.n	800176e <floor+0x96>
 80017bc:	3401      	adds	r4, #1
 80017be:	e7d6      	b.n	800176e <floor+0x96>
 80017c0:	8800759c 	.word	0x8800759c
 80017c4:	7e37e43c 	.word	0x7e37e43c
 80017c8:	000fffff 	.word	0x000fffff
 80017cc:	bff00000 	.word	0xbff00000

080017d0 <scalbn>:
 80017d0:	b5f8      	push	{r3, r4, r5, r6, r7, lr}
 80017d2:	f3c1 530a 	ubfx	r3, r1, #20, #11
 80017d6:	4604      	mov	r4, r0
 80017d8:	460d      	mov	r5, r1
 80017da:	460e      	mov	r6, r1
 80017dc:	4617      	mov	r7, r2
 80017de:	bb73      	cbnz	r3, 800183e <scalbn+0x6e>
 80017e0:	4603      	mov	r3, r0
 80017e2:	f021 4600 	bic.w	r6, r1, #2147483648	; 0x80000000
 80017e6:	4333      	orrs	r3, r6
 80017e8:	d028      	beq.n	800183c <scalbn+0x6c>
 80017ea:	4b31      	ldr	r3, [pc, #196]	; (80018b0 <scalbn+0xe0>)
 80017ec:	2200      	movs	r2, #0
 80017ee:	f000 f869 	bl	80018c4 <__aeabi_dmul>
 80017f2:	4b30      	ldr	r3, [pc, #192]	; (80018b4 <scalbn+0xe4>)
 80017f4:	4604      	mov	r4, r0
 80017f6:	429f      	cmp	r7, r3
 80017f8:	460d      	mov	r5, r1
 80017fa:	db1a      	blt.n	8001832 <scalbn+0x62>
 80017fc:	460e      	mov	r6, r1
 80017fe:	f3c1 530a 	ubfx	r3, r1, #20, #11
 8001802:	3b36      	subs	r3, #54	; 0x36
 8001804:	f240 72fe 	movw	r2, #2046	; 0x7fe
 8001808:	443b      	add	r3, r7
 800180a:	4293      	cmp	r3, r2
 800180c:	dc20      	bgt.n	8001850 <scalbn+0x80>
 800180e:	2b00      	cmp	r3, #0
 8001810:	dc3c      	bgt.n	800188c <scalbn+0xbc>
 8001812:	f113 0f35 	cmn.w	r3, #53	; 0x35
 8001816:	da2c      	bge.n	8001872 <scalbn+0xa2>
 8001818:	f24c 3350 	movw	r3, #50000	; 0xc350
 800181c:	429f      	cmp	r7, r3
 800181e:	dc17      	bgt.n	8001850 <scalbn+0x80>
 8001820:	f005 4300 	and.w	r3, r5, #2147483648	; 0x80000000
 8001824:	f043 71d2 	orr.w	r1, r3, #27525120	; 0x1a40000
 8001828:	f441 31b7 	orr.w	r1, r1, #93696	; 0x16e00
 800182c:	4822      	ldr	r0, [pc, #136]	; (80018b8 <scalbn+0xe8>)
 800182e:	f041 011f 	orr.w	r1, r1, #31
 8001832:	a31b      	add	r3, pc, #108	; (adr r3, 80018a0 <scalbn+0xd0>)
 8001834:	e9d3 2300 	ldrd	r2, r3, [r3]
 8001838:	f000 f844 	bl	80018c4 <__aeabi_dmul>
 800183c:	bdf8      	pop	{r3, r4, r5, r6, r7, pc}
 800183e:	f240 72ff 	movw	r2, #2047	; 0x7ff
 8001842:	4293      	cmp	r3, r2
 8001844:	d1de      	bne.n	8001804 <scalbn+0x34>
 8001846:	4602      	mov	r2, r0
 8001848:	460b      	mov	r3, r1
 800184a:	f000 f96b 	bl	8001b24 <__adddf3>
 800184e:	bdf8      	pop	{r3, r4, r5, r6, r7, pc}
 8001850:	f005 4400 	and.w	r4, r5, #2147483648	; 0x80000000
 8001854:	f044 41fc 	orr.w	r1, r4, #2113929216	; 0x7e000000
 8001858:	f441 115f 	orr.w	r1, r1, #3653632	; 0x37c000
 800185c:	f441 5110 	orr.w	r1, r1, #9216	; 0x2400
 8001860:	a311      	add	r3, pc, #68	; (adr r3, 80018a8 <scalbn+0xd8>)
 8001862:	e9d3 2300 	ldrd	r2, r3, [r3]
 8001866:	4815      	ldr	r0, [pc, #84]	; (80018bc <scalbn+0xec>)
 8001868:	f041 013c 	orr.w	r1, r1, #60	; 0x3c
 800186c:	f000 f82a 	bl	80018c4 <__aeabi_dmul>
 8001870:	bdf8      	pop	{r3, r4, r5, r6, r7, pc}
 8001872:	f026 46ff 	bic.w	r6, r6, #2139095040	; 0x7f800000
 8001876:	f426 06e0 	bic.w	r6, r6, #7340032	; 0x700000
 800187a:	3336      	adds	r3, #54	; 0x36
 800187c:	ea46 5103 	orr.w	r1, r6, r3, lsl #20
 8001880:	4620      	mov	r0, r4
 8001882:	2200      	movs	r2, #0
 8001884:	4b0e      	ldr	r3, [pc, #56]	; (80018c0 <scalbn+0xf0>)
 8001886:	f000 f81d 	bl	80018c4 <__aeabi_dmul>
 800188a:	bdf8      	pop	{r3, r4, r5, r6, r7, pc}
 800188c:	f026 46ff 	bic.w	r6, r6, #2139095040	; 0x7f800000
 8001890:	f426 06e0 	bic.w	r6, r6, #7340032	; 0x700000
 8001894:	4620      	mov	r0, r4
 8001896:	ea46 5103 	orr.w	r1, r6, r3, lsl #20
 800189a:	bdf8      	pop	{r3, r4, r5, r6, r7, pc}
 800189c:	f3af 8000 	nop.w
 80018a0:	c2f8f359 	.word	0xc2f8f359
 80018a4:	01a56e1f 	.word	0x01a56e1f
 80018a8:	8800759c 	.word	0x8800759c
 80018ac:	7e37e43c 	.word	0x7e37e43c
 80018b0:	43500000 	.word	0x43500000
 80018b4:	ffff3cb0 	.word	0xffff3cb0
 80018b8:	c2f8f359 	.word	0xc2f8f359
 80018bc:	8800759c 	.word	0x8800759c
 80018c0:	3c900000 	.word	0x3c900000

080018c4 <__aeabi_dmul>:
 80018c4:	b570      	push	{r4, r5, r6, lr}
 80018c6:	f04f 0cff 	mov.w	ip, #255	; 0xff
 80018ca:	f44c 6ce0 	orr.w	ip, ip, #1792	; 0x700
 80018ce:	ea1c 5411 	ands.w	r4, ip, r1, lsr #20
 80018d2:	bf1d      	ittte	ne
 80018d4:	ea1c 5513 	andsne.w	r5, ip, r3, lsr #20
 80018d8:	ea94 0f0c 	teqne	r4, ip
 80018dc:	ea95 0f0c 	teqne	r5, ip
 80018e0:	f000 f8de 	bleq	8001aa0 <__aeabi_dmul+0x1dc>
 80018e4:	442c      	add	r4, r5
 80018e6:	ea81 0603 	eor.w	r6, r1, r3
 80018ea:	ea21 514c 	bic.w	r1, r1, ip, lsl #21
 80018ee:	ea23 534c 	bic.w	r3, r3, ip, lsl #21
 80018f2:	ea50 3501 	orrs.w	r5, r0, r1, lsl #12
 80018f6:	bf18      	it	ne
 80018f8:	ea52 3503 	orrsne.w	r5, r2, r3, lsl #12
 80018fc:	f441 1180 	orr.w	r1, r1, #1048576	; 0x100000
 8001900:	f443 1380 	orr.w	r3, r3, #1048576	; 0x100000
 8001904:	d038      	beq.n	8001978 <__aeabi_dmul+0xb4>
 8001906:	fba0 ce02 	umull	ip, lr, r0, r2
 800190a:	f04f 0500 	mov.w	r5, #0
 800190e:	fbe1 e502 	umlal	lr, r5, r1, r2
 8001912:	f006 4200 	and.w	r2, r6, #2147483648	; 0x80000000
 8001916:	fbe0 e503 	umlal	lr, r5, r0, r3
 800191a:	f04f 0600 	mov.w	r6, #0
 800191e:	fbe1 5603 	umlal	r5, r6, r1, r3
 8001922:	f09c 0f00 	teq	ip, #0
 8001926:	bf18      	it	ne
 8001928:	f04e 0e01 	orrne.w	lr, lr, #1
 800192c:	f1a4 04ff 	sub.w	r4, r4, #255	; 0xff
 8001930:	f5b6 7f00 	cmp.w	r6, #512	; 0x200
 8001934:	f564 7440 	sbc.w	r4, r4, #768	; 0x300
 8001938:	d204      	bcs.n	8001944 <__aeabi_dmul+0x80>
 800193a:	ea5f 0e4e 	movs.w	lr, lr, lsl #1
 800193e:	416d      	adcs	r5, r5
 8001940:	eb46 0606 	adc.w	r6, r6, r6
 8001944:	ea42 21c6 	orr.w	r1, r2, r6, lsl #11
 8001948:	ea41 5155 	orr.w	r1, r1, r5, lsr #21
 800194c:	ea4f 20c5 	mov.w	r0, r5, lsl #11
 8001950:	ea40 505e 	orr.w	r0, r0, lr, lsr #21
 8001954:	ea4f 2ece 	mov.w	lr, lr, lsl #11
 8001958:	f1b4 0cfd 	subs.w	ip, r4, #253	; 0xfd
 800195c:	bf88      	it	hi
 800195e:	f5bc 6fe0 	cmphi.w	ip, #1792	; 0x700
 8001962:	d81e      	bhi.n	80019a2 <__aeabi_dmul+0xde>
 8001964:	f1be 4f00 	cmp.w	lr, #2147483648	; 0x80000000
 8001968:	bf08      	it	eq
 800196a:	ea5f 0e50 	movseq.w	lr, r0, lsr #1
 800196e:	f150 0000 	adcs.w	r0, r0, #0
 8001972:	eb41 5104 	adc.w	r1, r1, r4, lsl #20
 8001976:	bd70      	pop	{r4, r5, r6, pc}
 8001978:	f006 4600 	and.w	r6, r6, #2147483648	; 0x80000000
 800197c:	ea46 0101 	orr.w	r1, r6, r1
 8001980:	ea40 0002 	orr.w	r0, r0, r2
 8001984:	ea81 0103 	eor.w	r1, r1, r3
 8001988:	ebb4 045c 	subs.w	r4, r4, ip, lsr #1
 800198c:	bfc2      	ittt	gt
 800198e:	ebd4 050c 	rsbsgt	r5, r4, ip
 8001992:	ea41 5104 	orrgt.w	r1, r1, r4, lsl #20
 8001996:	bd70      	popgt	{r4, r5, r6, pc}
 8001998:	f441 1180 	orr.w	r1, r1, #1048576	; 0x100000
 800199c:	f04f 0e00 	mov.w	lr, #0
 80019a0:	3c01      	subs	r4, #1
 80019a2:	f300 80ab 	bgt.w	8001afc <__aeabi_dmul+0x238>
 80019a6:	f114 0f36 	cmn.w	r4, #54	; 0x36
 80019aa:	bfde      	ittt	le
 80019ac:	2000      	movle	r0, #0
 80019ae:	f001 4100 	andle.w	r1, r1, #2147483648	; 0x80000000
 80019b2:	bd70      	pople	{r4, r5, r6, pc}
 80019b4:	f1c4 0400 	rsb	r4, r4, #0
 80019b8:	3c20      	subs	r4, #32
 80019ba:	da35      	bge.n	8001a28 <__aeabi_dmul+0x164>
 80019bc:	340c      	adds	r4, #12
 80019be:	dc1b      	bgt.n	80019f8 <__aeabi_dmul+0x134>
 80019c0:	f104 0414 	add.w	r4, r4, #20
 80019c4:	f1c4 0520 	rsb	r5, r4, #32
 80019c8:	fa00 f305 	lsl.w	r3, r0, r5
 80019cc:	fa20 f004 	lsr.w	r0, r0, r4
 80019d0:	fa01 f205 	lsl.w	r2, r1, r5
 80019d4:	ea40 0002 	orr.w	r0, r0, r2
 80019d8:	f001 4200 	and.w	r2, r1, #2147483648	; 0x80000000
 80019dc:	f021 4100 	bic.w	r1, r1, #2147483648	; 0x80000000
 80019e0:	eb10 70d3 	adds.w	r0, r0, r3, lsr #31
 80019e4:	fa21 f604 	lsr.w	r6, r1, r4
 80019e8:	eb42 0106 	adc.w	r1, r2, r6
 80019ec:	ea5e 0e43 	orrs.w	lr, lr, r3, lsl #1
 80019f0:	bf08      	it	eq
 80019f2:	ea20 70d3 	biceq.w	r0, r0, r3, lsr #31
 80019f6:	bd70      	pop	{r4, r5, r6, pc}
 80019f8:	f1c4 040c 	rsb	r4, r4, #12
 80019fc:	f1c4 0520 	rsb	r5, r4, #32
 8001a00:	fa00 f304 	lsl.w	r3, r0, r4
 8001a04:	fa20 f005 	lsr.w	r0, r0, r5
 8001a08:	fa01 f204 	lsl.w	r2, r1, r4
 8001a0c:	ea40 0002 	orr.w	r0, r0, r2
 8001a10:	f001 4100 	and.w	r1, r1, #2147483648	; 0x80000000
 8001a14:	eb10 70d3 	adds.w	r0, r0, r3, lsr #31
 8001a18:	f141 0100 	adc.w	r1, r1, #0
 8001a1c:	ea5e 0e43 	orrs.w	lr, lr, r3, lsl #1
 8001a20:	bf08      	it	eq
 8001a22:	ea20 70d3 	biceq.w	r0, r0, r3, lsr #31
 8001a26:	bd70      	pop	{r4, r5, r6, pc}
 8001a28:	f1c4 0520 	rsb	r5, r4, #32
 8001a2c:	fa00 f205 	lsl.w	r2, r0, r5
 8001a30:	ea4e 0e02 	orr.w	lr, lr, r2
 8001a34:	fa20 f304 	lsr.w	r3, r0, r4
 8001a38:	fa01 f205 	lsl.w	r2, r1, r5
 8001a3c:	ea43 0302 	orr.w	r3, r3, r2
 8001a40:	fa21 f004 	lsr.w	r0, r1, r4
 8001a44:	f001 4100 	and.w	r1, r1, #2147483648	; 0x80000000
 8001a48:	fa21 f204 	lsr.w	r2, r1, r4
 8001a4c:	ea20 0002 	bic.w	r0, r0, r2
 8001a50:	eb00 70d3 	add.w	r0, r0, r3, lsr #31
 8001a54:	ea5e 0e43 	orrs.w	lr, lr, r3, lsl #1
 8001a58:	bf08      	it	eq
 8001a5a:	ea20 70d3 	biceq.w	r0, r0, r3, lsr #31
 8001a5e:	bd70      	pop	{r4, r5, r6, pc}
 8001a60:	f094 0f00 	teq	r4, #0
 8001a64:	d10f      	bne.n	8001a86 <__aeabi_dmul+0x1c2>
 8001a66:	f001 4600 	and.w	r6, r1, #2147483648	; 0x80000000
 8001a6a:	0040      	lsls	r0, r0, #1
 8001a6c:	eb41 0101 	adc.w	r1, r1, r1
 8001a70:	f411 1f80 	tst.w	r1, #1048576	; 0x100000
 8001a74:	bf08      	it	eq
 8001a76:	3c01      	subeq	r4, #1
 8001a78:	d0f7      	beq.n	8001a6a <__aeabi_dmul+0x1a6>
 8001a7a:	ea41 0106 	orr.w	r1, r1, r6
 8001a7e:	f095 0f00 	teq	r5, #0
 8001a82:	bf18      	it	ne
 8001a84:	4770      	bxne	lr
 8001a86:	f003 4600 	and.w	r6, r3, #2147483648	; 0x80000000
 8001a8a:	0052      	lsls	r2, r2, #1
 8001a8c:	eb43 0303 	adc.w	r3, r3, r3
 8001a90:	f413 1f80 	tst.w	r3, #1048576	; 0x100000
 8001a94:	bf08      	it	eq
 8001a96:	3d01      	subeq	r5, #1
 8001a98:	d0f7      	beq.n	8001a8a <__aeabi_dmul+0x1c6>
 8001a9a:	ea43 0306 	orr.w	r3, r3, r6
 8001a9e:	4770      	bx	lr
 8001aa0:	ea94 0f0c 	teq	r4, ip
 8001aa4:	ea0c 5513 	and.w	r5, ip, r3, lsr #20
 8001aa8:	bf18      	it	ne
 8001aaa:	ea95 0f0c 	teqne	r5, ip
 8001aae:	d00c      	beq.n	8001aca <__aeabi_dmul+0x206>
 8001ab0:	ea50 0641 	orrs.w	r6, r0, r1, lsl #1
 8001ab4:	bf18      	it	ne
 8001ab6:	ea52 0643 	orrsne.w	r6, r2, r3, lsl #1
 8001aba:	d1d1      	bne.n	8001a60 <__aeabi_dmul+0x19c>
 8001abc:	ea81 0103 	eor.w	r1, r1, r3
 8001ac0:	f001 4100 	and.w	r1, r1, #2147483648	; 0x80000000
 8001ac4:	f04f 0000 	mov.w	r0, #0
 8001ac8:	bd70      	pop	{r4, r5, r6, pc}
 8001aca:	ea50 0641 	orrs.w	r6, r0, r1, lsl #1
 8001ace:	bf06      	itte	eq
 8001ad0:	4610      	moveq	r0, r2
 8001ad2:	4619      	moveq	r1, r3
 8001ad4:	ea52 0643 	orrsne.w	r6, r2, r3, lsl #1
 8001ad8:	d019      	beq.n	8001b0e <__aeabi_dmul+0x24a>
 8001ada:	ea94 0f0c 	teq	r4, ip
 8001ade:	d102      	bne.n	8001ae6 <__aeabi_dmul+0x222>
 8001ae0:	ea50 3601 	orrs.w	r6, r0, r1, lsl #12
 8001ae4:	d113      	bne.n	8001b0e <__aeabi_dmul+0x24a>
 8001ae6:	ea95 0f0c 	teq	r5, ip
 8001aea:	d105      	bne.n	8001af8 <__aeabi_dmul+0x234>
 8001aec:	ea52 3603 	orrs.w	r6, r2, r3, lsl #12
 8001af0:	bf1c      	itt	ne
 8001af2:	4610      	movne	r0, r2
 8001af4:	4619      	movne	r1, r3
 8001af6:	d10a      	bne.n	8001b0e <__aeabi_dmul+0x24a>
 8001af8:	ea81 0103 	eor.w	r1, r1, r3
 8001afc:	f001 4100 	and.w	r1, r1, #2147483648	; 0x80000000
 8001b00:	f041 41fe 	orr.w	r1, r1, #2130706432	; 0x7f000000
 8001b04:	f441 0170 	orr.w	r1, r1, #15728640	; 0xf00000
 8001b08:	f04f 0000 	mov.w	r0, #0
 8001b0c:	bd70      	pop	{r4, r5, r6, pc}
 8001b0e:	f041 41fe 	orr.w	r1, r1, #2130706432	; 0x7f000000
 8001b12:	f441 0178 	orr.w	r1, r1, #16252928	; 0xf80000
 8001b16:	bd70      	pop	{r4, r5, r6, pc}

08001b18 <__aeabi_drsub>:
 8001b18:	f081 4100 	eor.w	r1, r1, #2147483648	; 0x80000000
 8001b1c:	e002      	b.n	8001b24 <__adddf3>
 8001b1e:	bf00      	nop

08001b20 <__aeabi_dsub>:
 8001b20:	f083 4300 	eor.w	r3, r3, #2147483648	; 0x80000000

08001b24 <__adddf3>:
 8001b24:	b530      	push	{r4, r5, lr}
 8001b26:	ea4f 0441 	mov.w	r4, r1, lsl #1
 8001b2a:	ea4f 0543 	mov.w	r5, r3, lsl #1
 8001b2e:	ea94 0f05 	teq	r4, r5
 8001b32:	bf08      	it	eq
 8001b34:	ea90 0f02 	teqeq	r0, r2
 8001b38:	bf1f      	itttt	ne
 8001b3a:	ea54 0c00 	orrsne.w	ip, r4, r0
 8001b3e:	ea55 0c02 	orrsne.w	ip, r5, r2
 8001b42:	ea7f 5c64 	mvnsne.w	ip, r4, asr #21
 8001b46:	ea7f 5c65 	mvnsne.w	ip, r5, asr #21
 8001b4a:	f000 80e2 	beq.w	8001d12 <__adddf3+0x1ee>
 8001b4e:	ea4f 5454 	mov.w	r4, r4, lsr #21
 8001b52:	ebd4 5555 	rsbs	r5, r4, r5, lsr #21
 8001b56:	bfb8      	it	lt
 8001b58:	426d      	neglt	r5, r5
 8001b5a:	dd0c      	ble.n	8001b76 <__adddf3+0x52>
 8001b5c:	442c      	add	r4, r5
 8001b5e:	ea80 0202 	eor.w	r2, r0, r2
 8001b62:	ea81 0303 	eor.w	r3, r1, r3
 8001b66:	ea82 0000 	eor.w	r0, r2, r0
 8001b6a:	ea83 0101 	eor.w	r1, r3, r1
 8001b6e:	ea80 0202 	eor.w	r2, r0, r2
 8001b72:	ea81 0303 	eor.w	r3, r1, r3
 8001b76:	2d36      	cmp	r5, #54	; 0x36
 8001b78:	bf88      	it	hi
 8001b7a:	bd30      	pophi	{r4, r5, pc}
 8001b7c:	f011 4f00 	tst.w	r1, #2147483648	; 0x80000000
 8001b80:	ea4f 3101 	mov.w	r1, r1, lsl #12
 8001b84:	f44f 1c80 	mov.w	ip, #1048576	; 0x100000
 8001b88:	ea4c 3111 	orr.w	r1, ip, r1, lsr #12
 8001b8c:	d002      	beq.n	8001b94 <__adddf3+0x70>
 8001b8e:	4240      	negs	r0, r0
 8001b90:	eb61 0141 	sbc.w	r1, r1, r1, lsl #1
 8001b94:	f013 4f00 	tst.w	r3, #2147483648	; 0x80000000
 8001b98:	ea4f 3303 	mov.w	r3, r3, lsl #12
 8001b9c:	ea4c 3313 	orr.w	r3, ip, r3, lsr #12
 8001ba0:	d002      	beq.n	8001ba8 <__adddf3+0x84>
 8001ba2:	4252      	negs	r2, r2
 8001ba4:	eb63 0343 	sbc.w	r3, r3, r3, lsl #1
 8001ba8:	ea94 0f05 	teq	r4, r5
 8001bac:	f000 80a7 	beq.w	8001cfe <__adddf3+0x1da>
 8001bb0:	f1a4 0401 	sub.w	r4, r4, #1
 8001bb4:	f1d5 0e20 	rsbs	lr, r5, #32
 8001bb8:	db0d      	blt.n	8001bd6 <__adddf3+0xb2>
 8001bba:	fa02 fc0e 	lsl.w	ip, r2, lr
 8001bbe:	fa22 f205 	lsr.w	r2, r2, r5
 8001bc2:	1880      	adds	r0, r0, r2
 8001bc4:	f141 0100 	adc.w	r1, r1, #0
 8001bc8:	fa03 f20e 	lsl.w	r2, r3, lr
 8001bcc:	1880      	adds	r0, r0, r2
 8001bce:	fa43 f305 	asr.w	r3, r3, r5
 8001bd2:	4159      	adcs	r1, r3
 8001bd4:	e00e      	b.n	8001bf4 <__adddf3+0xd0>
 8001bd6:	f1a5 0520 	sub.w	r5, r5, #32
 8001bda:	f10e 0e20 	add.w	lr, lr, #32
 8001bde:	2a01      	cmp	r2, #1
 8001be0:	fa03 fc0e 	lsl.w	ip, r3, lr
 8001be4:	bf28      	it	cs
 8001be6:	f04c 0c02 	orrcs.w	ip, ip, #2
 8001bea:	fa43 f305 	asr.w	r3, r3, r5
 8001bee:	18c0      	adds	r0, r0, r3
 8001bf0:	eb51 71e3 	adcs.w	r1, r1, r3, asr #31
 8001bf4:	f001 4500 	and.w	r5, r1, #2147483648	; 0x80000000
 8001bf8:	d507      	bpl.n	8001c0a <__adddf3+0xe6>
 8001bfa:	f04f 0e00 	mov.w	lr, #0
 8001bfe:	f1dc 0c00 	rsbs	ip, ip, #0
 8001c02:	eb7e 0000 	sbcs.w	r0, lr, r0
 8001c06:	eb6e 0101 	sbc.w	r1, lr, r1
 8001c0a:	f5b1 1f80 	cmp.w	r1, #1048576	; 0x100000
 8001c0e:	d31b      	bcc.n	8001c48 <__adddf3+0x124>
 8001c10:	f5b1 1f00 	cmp.w	r1, #2097152	; 0x200000
 8001c14:	d30c      	bcc.n	8001c30 <__adddf3+0x10c>
 8001c16:	0849      	lsrs	r1, r1, #1
 8001c18:	ea5f 0030 	movs.w	r0, r0, rrx
 8001c1c:	ea4f 0c3c 	mov.w	ip, ip, rrx
 8001c20:	f104 0401 	add.w	r4, r4, #1
 8001c24:	ea4f 5244 	mov.w	r2, r4, lsl #21
 8001c28:	f512 0f80 	cmn.w	r2, #4194304	; 0x400000
 8001c2c:	f080 809a 	bcs.w	8001d64 <__adddf3+0x240>
 8001c30:	f1bc 4f00 	cmp.w	ip, #2147483648	; 0x80000000
 8001c34:	bf08      	it	eq
 8001c36:	ea5f 0c50 	movseq.w	ip, r0, lsr #1
 8001c3a:	f150 0000 	adcs.w	r0, r0, #0
 8001c3e:	eb41 5104 	adc.w	r1, r1, r4, lsl #20
 8001c42:	ea41 0105 	orr.w	r1, r1, r5
 8001c46:	bd30      	pop	{r4, r5, pc}
 8001c48:	ea5f 0c4c 	movs.w	ip, ip, lsl #1
 8001c4c:	4140      	adcs	r0, r0
 8001c4e:	eb41 0101 	adc.w	r1, r1, r1
 8001c52:	3c01      	subs	r4, #1
 8001c54:	bf28      	it	cs
 8001c56:	f5b1 1f80 	cmpcs.w	r1, #1048576	; 0x100000
 8001c5a:	d2e9      	bcs.n	8001c30 <__adddf3+0x10c>
 8001c5c:	f091 0f00 	teq	r1, #0
 8001c60:	bf04      	itt	eq
 8001c62:	4601      	moveq	r1, r0
 8001c64:	2000      	moveq	r0, #0
 8001c66:	fab1 f381 	clz	r3, r1
 8001c6a:	bf08      	it	eq
 8001c6c:	3320      	addeq	r3, #32
 8001c6e:	f1a3 030b 	sub.w	r3, r3, #11
 8001c72:	f1b3 0220 	subs.w	r2, r3, #32
 8001c76:	da0c      	bge.n	8001c92 <__adddf3+0x16e>
 8001c78:	320c      	adds	r2, #12
 8001c7a:	dd08      	ble.n	8001c8e <__adddf3+0x16a>
 8001c7c:	f102 0c14 	add.w	ip, r2, #20
 8001c80:	f1c2 020c 	rsb	r2, r2, #12
 8001c84:	fa01 f00c 	lsl.w	r0, r1, ip
 8001c88:	fa21 f102 	lsr.w	r1, r1, r2
 8001c8c:	e00c      	b.n	8001ca8 <__adddf3+0x184>
 8001c8e:	f102 0214 	add.w	r2, r2, #20
 8001c92:	bfd8      	it	le
 8001c94:	f1c2 0c20 	rsble	ip, r2, #32
 8001c98:	fa01 f102 	lsl.w	r1, r1, r2
 8001c9c:	fa20 fc0c 	lsr.w	ip, r0, ip
 8001ca0:	bfdc      	itt	le
 8001ca2:	ea41 010c 	orrle.w	r1, r1, ip
 8001ca6:	4090      	lslle	r0, r2
 8001ca8:	1ae4      	subs	r4, r4, r3
 8001caa:	bfa2      	ittt	ge
 8001cac:	eb01 5104 	addge.w	r1, r1, r4, lsl #20
 8001cb0:	4329      	orrge	r1, r5
 8001cb2:	bd30      	popge	{r4, r5, pc}
 8001cb4:	ea6f 0404 	mvn.w	r4, r4
 8001cb8:	3c1f      	subs	r4, #31
 8001cba:	da1c      	bge.n	8001cf6 <__adddf3+0x1d2>
 8001cbc:	340c      	adds	r4, #12
 8001cbe:	dc0e      	bgt.n	8001cde <__adddf3+0x1ba>
 8001cc0:	f104 0414 	add.w	r4, r4, #20
 8001cc4:	f1c4 0220 	rsb	r2, r4, #32
 8001cc8:	fa20 f004 	lsr.w	r0, r0, r4
 8001ccc:	fa01 f302 	lsl.w	r3, r1, r2
 8001cd0:	ea40 0003 	orr.w	r0, r0, r3
 8001cd4:	fa21 f304 	lsr.w	r3, r1, r4
 8001cd8:	ea45 0103 	orr.w	r1, r5, r3
 8001cdc:	bd30      	pop	{r4, r5, pc}
 8001cde:	f1c4 040c 	rsb	r4, r4, #12
 8001ce2:	f1c4 0220 	rsb	r2, r4, #32
 8001ce6:	fa20 f002 	lsr.w	r0, r0, r2
 8001cea:	fa01 f304 	lsl.w	r3, r1, r4
 8001cee:	ea40 0003 	orr.w	r0, r0, r3
 8001cf2:	4629      	mov	r1, r5
 8001cf4:	bd30      	pop	{r4, r5, pc}
 8001cf6:	fa21 f004 	lsr.w	r0, r1, r4
 8001cfa:	4629      	mov	r1, r5
 8001cfc:	bd30      	pop	{r4, r5, pc}
 8001cfe:	f094 0f00 	teq	r4, #0
 8001d02:	f483 1380 	eor.w	r3, r3, #1048576	; 0x100000
 8001d06:	bf06      	itte	eq
 8001d08:	f481 1180 	eoreq.w	r1, r1, #1048576	; 0x100000
 8001d0c:	3401      	addeq	r4, #1
 8001d0e:	3d01      	subne	r5, #1
 8001d10:	e74e      	b.n	8001bb0 <__adddf3+0x8c>
 8001d12:	ea7f 5c64 	mvns.w	ip, r4, asr #21
 8001d16:	bf18      	it	ne
 8001d18:	ea7f 5c65 	mvnsne.w	ip, r5, asr #21
 8001d1c:	d029      	beq.n	8001d72 <__adddf3+0x24e>
 8001d1e:	ea94 0f05 	teq	r4, r5
 8001d22:	bf08      	it	eq
 8001d24:	ea90 0f02 	teqeq	r0, r2
 8001d28:	d005      	beq.n	8001d36 <__adddf3+0x212>
 8001d2a:	ea54 0c00 	orrs.w	ip, r4, r0
 8001d2e:	bf04      	itt	eq
 8001d30:	4619      	moveq	r1, r3
 8001d32:	4610      	moveq	r0, r2
 8001d34:	bd30      	pop	{r4, r5, pc}
 8001d36:	ea91 0f03 	teq	r1, r3
 8001d3a:	bf1e      	ittt	ne
 8001d3c:	2100      	movne	r1, #0
 8001d3e:	2000      	movne	r0, #0
 8001d40:	bd30      	popne	{r4, r5, pc}
 8001d42:	ea5f 5c54 	movs.w	ip, r4, lsr #21
 8001d46:	d105      	bne.n	8001d54 <__adddf3+0x230>
 8001d48:	0040      	lsls	r0, r0, #1
 8001d4a:	4149      	adcs	r1, r1
 8001d4c:	bf28      	it	cs
 8001d4e:	f041 4100 	orrcs.w	r1, r1, #2147483648	; 0x80000000
 8001d52:	bd30      	pop	{r4, r5, pc}
 8001d54:	f514 0480 	adds.w	r4, r4, #4194304	; 0x400000
 8001d58:	bf3c      	itt	cc
 8001d5a:	f501 1180 	addcc.w	r1, r1, #1048576	; 0x100000
 8001d5e:	bd30      	popcc	{r4, r5, pc}
 8001d60:	f001 4500 	and.w	r5, r1, #2147483648	; 0x80000000
 8001d64:	f045 41fe 	orr.w	r1, r5, #2130706432	; 0x7f000000
 8001d68:	f441 0170 	orr.w	r1, r1, #15728640	; 0xf00000
 8001d6c:	f04f 0000 	mov.w	r0, #0
 8001d70:	bd30      	pop	{r4, r5, pc}
 8001d72:	ea7f 5c64 	mvns.w	ip, r4, asr #21
 8001d76:	bf1a      	itte	ne
 8001d78:	4619      	movne	r1, r3
 8001d7a:	4610      	movne	r0, r2
 8001d7c:	ea7f 5c65 	mvnseq.w	ip, r5, asr #21
 8001d80:	bf1c      	itt	ne
 8001d82:	460b      	movne	r3, r1
 8001d84:	4602      	movne	r2, r0
 8001d86:	ea50 3401 	orrs.w	r4, r0, r1, lsl #12
 8001d8a:	bf06      	itte	eq
 8001d8c:	ea52 3503 	orrseq.w	r5, r2, r3, lsl #12
 8001d90:	ea91 0f03 	teqeq	r1, r3
 8001d94:	f441 2100 	orrne.w	r1, r1, #524288	; 0x80000
 8001d98:	bd30      	pop	{r4, r5, pc}
 8001d9a:	bf00      	nop

08001d9c <__aeabi_ui2d>:
 8001d9c:	f090 0f00 	teq	r0, #0
 8001da0:	bf04      	itt	eq
 8001da2:	2100      	moveq	r1, #0
 8001da4:	4770      	bxeq	lr
 8001da6:	b530      	push	{r4, r5, lr}
 8001da8:	f44f 6480 	mov.w	r4, #1024	; 0x400
 8001dac:	f104 0432 	add.w	r4, r4, #50	; 0x32
 8001db0:	f04f 0500 	mov.w	r5, #0
 8001db4:	f04f 0100 	mov.w	r1, #0
 8001db8:	e750      	b.n	8001c5c <__adddf3+0x138>
 8001dba:	bf00      	nop

08001dbc <__aeabi_i2d>:
 8001dbc:	f090 0f00 	teq	r0, #0
 8001dc0:	bf04      	itt	eq
 8001dc2:	2100      	moveq	r1, #0
 8001dc4:	4770      	bxeq	lr
 8001dc6:	b530      	push	{r4, r5, lr}
 8001dc8:	f44f 6480 	mov.w	r4, #1024	; 0x400
 8001dcc:	f104 0432 	add.w	r4, r4, #50	; 0x32
 8001dd0:	f010 4500 	ands.w	r5, r0, #2147483648	; 0x80000000
 8001dd4:	bf48      	it	mi
 8001dd6:	4240      	negmi	r0, r0
 8001dd8:	f04f 0100 	mov.w	r1, #0
 8001ddc:	e73e      	b.n	8001c5c <__adddf3+0x138>
 8001dde:	bf00      	nop

08001de0 <__aeabi_f2d>:
 8001de0:	0042      	lsls	r2, r0, #1
 8001de2:	ea4f 01e2 	mov.w	r1, r2, asr #3
 8001de6:	ea4f 0131 	mov.w	r1, r1, rrx
 8001dea:	ea4f 7002 	mov.w	r0, r2, lsl #28
 8001dee:	bf1f      	itttt	ne
 8001df0:	f012 437f 	andsne.w	r3, r2, #4278190080	; 0xff000000
 8001df4:	f093 4f7f 	teqne	r3, #4278190080	; 0xff000000
 8001df8:	f081 5160 	eorne.w	r1, r1, #939524096	; 0x38000000
 8001dfc:	4770      	bxne	lr
 8001dfe:	f032 427f 	bics.w	r2, r2, #4278190080	; 0xff000000
 8001e02:	bf08      	it	eq
 8001e04:	4770      	bxeq	lr
 8001e06:	f093 4f7f 	teq	r3, #4278190080	; 0xff000000
 8001e0a:	bf04      	itt	eq
 8001e0c:	f441 2100 	orreq.w	r1, r1, #524288	; 0x80000
 8001e10:	4770      	bxeq	lr
 8001e12:	b530      	push	{r4, r5, lr}
 8001e14:	f44f 7460 	mov.w	r4, #896	; 0x380
 8001e18:	f001 4500 	and.w	r5, r1, #2147483648	; 0x80000000
 8001e1c:	f021 4100 	bic.w	r1, r1, #2147483648	; 0x80000000
 8001e20:	e71c      	b.n	8001c5c <__adddf3+0x138>
 8001e22:	bf00      	nop

08001e24 <__aeabi_ul2d>:
 8001e24:	ea50 0201 	orrs.w	r2, r0, r1
 8001e28:	bf08      	it	eq
 8001e2a:	4770      	bxeq	lr
 8001e2c:	b530      	push	{r4, r5, lr}
 8001e2e:	f04f 0500 	mov.w	r5, #0
 8001e32:	e00a      	b.n	8001e4a <__aeabi_l2d+0x16>

08001e34 <__aeabi_l2d>:
 8001e34:	ea50 0201 	orrs.w	r2, r0, r1
 8001e38:	bf08      	it	eq
 8001e3a:	4770      	bxeq	lr
 8001e3c:	b530      	push	{r4, r5, lr}
 8001e3e:	f011 4500 	ands.w	r5, r1, #2147483648	; 0x80000000
 8001e42:	d502      	bpl.n	8001e4a <__aeabi_l2d+0x16>
 8001e44:	4240      	negs	r0, r0
 8001e46:	eb61 0141 	sbc.w	r1, r1, r1, lsl #1
 8001e4a:	f44f 6480 	mov.w	r4, #1024	; 0x400
 8001e4e:	f104 0432 	add.w	r4, r4, #50	; 0x32
 8001e52:	ea5f 5c91 	movs.w	ip, r1, lsr #22
 8001e56:	f43f aed8 	beq.w	8001c0a <__adddf3+0xe6>
 8001e5a:	f04f 0203 	mov.w	r2, #3
 8001e5e:	ea5f 0cdc 	movs.w	ip, ip, lsr #3
 8001e62:	bf18      	it	ne
 8001e64:	3203      	addne	r2, #3
 8001e66:	ea5f 0cdc 	movs.w	ip, ip, lsr #3
 8001e6a:	bf18      	it	ne
 8001e6c:	3203      	addne	r2, #3
 8001e6e:	eb02 02dc 	add.w	r2, r2, ip, lsr #3
 8001e72:	f1c2 0320 	rsb	r3, r2, #32
 8001e76:	fa00 fc03 	lsl.w	ip, r0, r3
 8001e7a:	fa20 f002 	lsr.w	r0, r0, r2
 8001e7e:	fa01 fe03 	lsl.w	lr, r1, r3
 8001e82:	ea40 000e 	orr.w	r0, r0, lr
 8001e86:	fa21 f102 	lsr.w	r1, r1, r2
 8001e8a:	4414      	add	r4, r2
 8001e8c:	e6bd      	b.n	8001c0a <__adddf3+0xe6>
 8001e8e:	bf00      	nop

08001e90 <__gedf2>:
 8001e90:	f04f 3cff 	mov.w	ip, #4294967295	; 0xffffffff
 8001e94:	e006      	b.n	8001ea4 <__cmpdf2+0x4>
 8001e96:	bf00      	nop

08001e98 <__ledf2>:
 8001e98:	f04f 0c01 	mov.w	ip, #1
 8001e9c:	e002      	b.n	8001ea4 <__cmpdf2+0x4>
 8001e9e:	bf00      	nop

08001ea0 <__cmpdf2>:
 8001ea0:	f04f 0c01 	mov.w	ip, #1
 8001ea4:	f84d cd04 	str.w	ip, [sp, #-4]!
 8001ea8:	ea4f 0c41 	mov.w	ip, r1, lsl #1
 8001eac:	ea7f 5c6c 	mvns.w	ip, ip, asr #21
 8001eb0:	ea4f 0c43 	mov.w	ip, r3, lsl #1
 8001eb4:	bf18      	it	ne
 8001eb6:	ea7f 5c6c 	mvnsne.w	ip, ip, asr #21
 8001eba:	d01b      	beq.n	8001ef4 <__cmpdf2+0x54>
 8001ebc:	b001      	add	sp, #4
 8001ebe:	ea50 0c41 	orrs.w	ip, r0, r1, lsl #1
 8001ec2:	bf0c      	ite	eq
 8001ec4:	ea52 0c43 	orrseq.w	ip, r2, r3, lsl #1
 8001ec8:	ea91 0f03 	teqne	r1, r3
 8001ecc:	bf02      	ittt	eq
 8001ece:	ea90 0f02 	teqeq	r0, r2
 8001ed2:	2000      	moveq	r0, #0
 8001ed4:	4770      	bxeq	lr
 8001ed6:	f110 0f00 	cmn.w	r0, #0
 8001eda:	ea91 0f03 	teq	r1, r3
 8001ede:	bf58      	it	pl
 8001ee0:	4299      	cmppl	r1, r3
 8001ee2:	bf08      	it	eq
 8001ee4:	4290      	cmpeq	r0, r2
 8001ee6:	bf2c      	ite	cs
 8001ee8:	17d8      	asrcs	r0, r3, #31
 8001eea:	ea6f 70e3 	mvncc.w	r0, r3, asr #31
 8001eee:	f040 0001 	orr.w	r0, r0, #1
 8001ef2:	4770      	bx	lr
 8001ef4:	ea4f 0c41 	mov.w	ip, r1, lsl #1
 8001ef8:	ea7f 5c6c 	mvns.w	ip, ip, asr #21
 8001efc:	d102      	bne.n	8001f04 <__cmpdf2+0x64>
 8001efe:	ea50 3c01 	orrs.w	ip, r0, r1, lsl #12
 8001f02:	d107      	bne.n	8001f14 <__cmpdf2+0x74>
 8001f04:	ea4f 0c43 	mov.w	ip, r3, lsl #1
 8001f08:	ea7f 5c6c 	mvns.w	ip, ip, asr #21
 8001f0c:	d1d6      	bne.n	8001ebc <__cmpdf2+0x1c>
 8001f0e:	ea52 3c03 	orrs.w	ip, r2, r3, lsl #12
 8001f12:	d0d3      	beq.n	8001ebc <__cmpdf2+0x1c>
 8001f14:	f85d 0b04 	ldr.w	r0, [sp], #4
 8001f18:	4770      	bx	lr
 8001f1a:	bf00      	nop

08001f1c <__aeabi_cdrcmple>:
 8001f1c:	4684      	mov	ip, r0
 8001f1e:	4610      	mov	r0, r2
 8001f20:	4662      	mov	r2, ip
 8001f22:	468c      	mov	ip, r1
 8001f24:	4619      	mov	r1, r3
 8001f26:	4663      	mov	r3, ip
 8001f28:	e000      	b.n	8001f2c <__aeabi_cdcmpeq>
 8001f2a:	bf00      	nop

08001f2c <__aeabi_cdcmpeq>:
 8001f2c:	b501      	push	{r0, lr}
 8001f2e:	f7ff ffb7 	bl	8001ea0 <__cmpdf2>
 8001f32:	2800      	cmp	r0, #0
 8001f34:	bf48      	it	mi
 8001f36:	f110 0f00 	cmnmi.w	r0, #0
 8001f3a:	bd01      	pop	{r0, pc}

08001f3c <__aeabi_dcmpeq>:
 8001f3c:	f84d ed08 	str.w	lr, [sp, #-8]!
 8001f40:	f7ff fff4 	bl	8001f2c <__aeabi_cdcmpeq>
 8001f44:	bf0c      	ite	eq
 8001f46:	2001      	moveq	r0, #1
 8001f48:	2000      	movne	r0, #0
 8001f4a:	f85d fb08 	ldr.w	pc, [sp], #8
 8001f4e:	bf00      	nop

08001f50 <__aeabi_dcmplt>:
 8001f50:	f84d ed08 	str.w	lr, [sp, #-8]!
 8001f54:	f7ff ffea 	bl	8001f2c <__aeabi_cdcmpeq>
 8001f58:	bf34      	ite	cc
 8001f5a:	2001      	movcc	r0, #1
 8001f5c:	2000      	movcs	r0, #0
 8001f5e:	f85d fb08 	ldr.w	pc, [sp], #8
 8001f62:	bf00      	nop

08001f64 <__aeabi_dcmple>:
 8001f64:	f84d ed08 	str.w	lr, [sp, #-8]!
 8001f68:	f7ff ffe0 	bl	8001f2c <__aeabi_cdcmpeq>
 8001f6c:	bf94      	ite	ls
 8001f6e:	2001      	movls	r0, #1
 8001f70:	2000      	movhi	r0, #0
 8001f72:	f85d fb08 	ldr.w	pc, [sp], #8
 8001f76:	bf00      	nop

08001f78 <__aeabi_dcmpge>:
 8001f78:	f84d ed08 	str.w	lr, [sp, #-8]!
 8001f7c:	f7ff ffce 	bl	8001f1c <__aeabi_cdrcmple>
 8001f80:	bf94      	ite	ls
 8001f82:	2001      	movls	r0, #1
 8001f84:	2000      	movhi	r0, #0
 8001f86:	f85d fb08 	ldr.w	pc, [sp], #8
 8001f8a:	bf00      	nop

08001f8c <__aeabi_dcmpgt>:
 8001f8c:	f84d ed08 	str.w	lr, [sp, #-8]!
 8001f90:	f7ff ffc4 	bl	8001f1c <__aeabi_cdrcmple>
 8001f94:	bf34      	ite	cc
 8001f96:	2001      	movcc	r0, #1
 8001f98:	2000      	movcs	r0, #0
 8001f9a:	f85d fb08 	ldr.w	pc, [sp], #8
 8001f9e:	bf00      	nop

08001fa0 <__aeabi_d2iz>:
 8001fa0:	ea4f 0241 	mov.w	r2, r1, lsl #1
 8001fa4:	f512 1200 	adds.w	r2, r2, #2097152	; 0x200000
 8001fa8:	d215      	bcs.n	8001fd6 <__aeabi_d2iz+0x36>
 8001faa:	d511      	bpl.n	8001fd0 <__aeabi_d2iz+0x30>
 8001fac:	f46f 7378 	mvn.w	r3, #992	; 0x3e0
 8001fb0:	ebb3 5262 	subs.w	r2, r3, r2, asr #21
 8001fb4:	d912      	bls.n	8001fdc <__aeabi_d2iz+0x3c>
 8001fb6:	ea4f 23c1 	mov.w	r3, r1, lsl #11
 8001fba:	f043 4300 	orr.w	r3, r3, #2147483648	; 0x80000000
 8001fbe:	ea43 5350 	orr.w	r3, r3, r0, lsr #21
 8001fc2:	f011 4f00 	tst.w	r1, #2147483648	; 0x80000000
 8001fc6:	fa23 f002 	lsr.w	r0, r3, r2
 8001fca:	bf18      	it	ne
 8001fcc:	4240      	negne	r0, r0
 8001fce:	4770      	bx	lr
 8001fd0:	f04f 0000 	mov.w	r0, #0
 8001fd4:	4770      	bx	lr
 8001fd6:	ea50 3001 	orrs.w	r0, r0, r1, lsl #12
 8001fda:	d105      	bne.n	8001fe8 <__aeabi_d2iz+0x48>
 8001fdc:	f011 4000 	ands.w	r0, r1, #2147483648	; 0x80000000
 8001fe0:	bf08      	it	eq
 8001fe2:	f06f 4000 	mvneq.w	r0, #2147483648	; 0x80000000
 8001fe6:	4770      	bx	lr
 8001fe8:	f04f 0000 	mov.w	r0, #0
 8001fec:	4770      	bx	lr
 8001fee:	bf00      	nop

08001ff0 <__aeabi_d2f>:
 8001ff0:	ea4f 0241 	mov.w	r2, r1, lsl #1
 8001ff4:	f1b2 43e0 	subs.w	r3, r2, #1879048192	; 0x70000000
 8001ff8:	bf24      	itt	cs
 8001ffa:	f5b3 1c00 	subscs.w	ip, r3, #2097152	; 0x200000
 8001ffe:	f1dc 5cfe 	rsbscs	ip, ip, #532676608	; 0x1fc00000
 8002002:	d90d      	bls.n	8002020 <__aeabi_d2f+0x30>
 8002004:	f001 4c00 	and.w	ip, r1, #2147483648	; 0x80000000
 8002008:	ea4f 02c0 	mov.w	r2, r0, lsl #3
 800200c:	ea4c 7050 	orr.w	r0, ip, r0, lsr #29
 8002010:	f1b2 4f00 	cmp.w	r2, #2147483648	; 0x80000000
 8002014:	eb40 0083 	adc.w	r0, r0, r3, lsl #2
 8002018:	bf08      	it	eq
 800201a:	f020 0001 	biceq.w	r0, r0, #1
 800201e:	4770      	bx	lr
 8002020:	f011 4f80 	tst.w	r1, #1073741824	; 0x40000000
 8002024:	d121      	bne.n	800206a <__aeabi_d2f+0x7a>
 8002026:	f113 7238 	adds.w	r2, r3, #48234496	; 0x2e00000
 800202a:	bfbc      	itt	lt
 800202c:	f001 4000 	andlt.w	r0, r1, #2147483648	; 0x80000000
 8002030:	4770      	bxlt	lr
 8002032:	f441 1180 	orr.w	r1, r1, #1048576	; 0x100000
 8002036:	ea4f 5252 	mov.w	r2, r2, lsr #21
 800203a:	f1c2 0218 	rsb	r2, r2, #24
 800203e:	f1c2 0c20 	rsb	ip, r2, #32
 8002042:	fa10 f30c 	lsls.w	r3, r0, ip
 8002046:	fa20 f002 	lsr.w	r0, r0, r2
 800204a:	bf18      	it	ne
 800204c:	f040 0001 	orrne.w	r0, r0, #1
 8002050:	ea4f 23c1 	mov.w	r3, r1, lsl #11
 8002054:	ea4f 23d3 	mov.w	r3, r3, lsr #11
 8002058:	fa03 fc0c 	lsl.w	ip, r3, ip
 800205c:	ea40 000c 	orr.w	r0, r0, ip
 8002060:	fa23 f302 	lsr.w	r3, r3, r2
 8002064:	ea4f 0343 	mov.w	r3, r3, lsl #1
 8002068:	e7cc      	b.n	8002004 <__aeabi_d2f+0x14>
 800206a:	ea7f 5362 	mvns.w	r3, r2, asr #21
 800206e:	d107      	bne.n	8002080 <__aeabi_d2f+0x90>
 8002070:	ea50 3301 	orrs.w	r3, r0, r1, lsl #12
 8002074:	bf1e      	ittt	ne
 8002076:	f04f 40fe 	movne.w	r0, #2130706432	; 0x7f000000
 800207a:	f440 0040 	orrne.w	r0, r0, #12582912	; 0xc00000
 800207e:	4770      	bxne	lr
 8002080:	f001 4000 	and.w	r0, r1, #2147483648	; 0x80000000
 8002084:	f040 40fe 	orr.w	r0, r0, #2130706432	; 0x7f000000
 8002088:	f440 0000 	orr.w	r0, r0, #8388608	; 0x800000
 800208c:	4770      	bx	lr
 800208e:	bf00      	nop

08002090 <__aeabi_frsub>:
 8002090:	f080 4000 	eor.w	r0, r0, #2147483648	; 0x80000000
 8002094:	e002      	b.n	800209c <__addsf3>
 8002096:	bf00      	nop

08002098 <__aeabi_fsub>:
 8002098:	f081 4100 	eor.w	r1, r1, #2147483648	; 0x80000000

0800209c <__addsf3>:
 800209c:	0042      	lsls	r2, r0, #1
 800209e:	bf1f      	itttt	ne
 80020a0:	ea5f 0341 	movsne.w	r3, r1, lsl #1
 80020a4:	ea92 0f03 	teqne	r2, r3
 80020a8:	ea7f 6c22 	mvnsne.w	ip, r2, asr #24
 80020ac:	ea7f 6c23 	mvnsne.w	ip, r3, asr #24
 80020b0:	d06a      	beq.n	8002188 <__addsf3+0xec>
 80020b2:	ea4f 6212 	mov.w	r2, r2, lsr #24
 80020b6:	ebd2 6313 	rsbs	r3, r2, r3, lsr #24
 80020ba:	bfc1      	itttt	gt
 80020bc:	18d2      	addgt	r2, r2, r3
 80020be:	4041      	eorgt	r1, r0
 80020c0:	4048      	eorgt	r0, r1
 80020c2:	4041      	eorgt	r1, r0
 80020c4:	bfb8      	it	lt
 80020c6:	425b      	neglt	r3, r3
 80020c8:	2b19      	cmp	r3, #25
 80020ca:	bf88      	it	hi
 80020cc:	4770      	bxhi	lr
 80020ce:	f010 4f00 	tst.w	r0, #2147483648	; 0x80000000
 80020d2:	f440 0000 	orr.w	r0, r0, #8388608	; 0x800000
 80020d6:	f020 407f 	bic.w	r0, r0, #4278190080	; 0xff000000
 80020da:	bf18      	it	ne
 80020dc:	4240      	negne	r0, r0
 80020de:	f011 4f00 	tst.w	r1, #2147483648	; 0x80000000
 80020e2:	f441 0100 	orr.w	r1, r1, #8388608	; 0x800000
 80020e6:	f021 417f 	bic.w	r1, r1, #4278190080	; 0xff000000
 80020ea:	bf18      	it	ne
 80020ec:	4249      	negne	r1, r1
 80020ee:	ea92 0f03 	teq	r2, r3
 80020f2:	d03f      	beq.n	8002174 <__addsf3+0xd8>
 80020f4:	f1a2 0201 	sub.w	r2, r2, #1
 80020f8:	fa41 fc03 	asr.w	ip, r1, r3
 80020fc:	eb10 000c 	adds.w	r0, r0, ip
 8002100:	f1c3 0320 	rsb	r3, r3, #32
 8002104:	fa01 f103 	lsl.w	r1, r1, r3
 8002108:	f000 4300 	and.w	r3, r0, #2147483648	; 0x80000000
 800210c:	d502      	bpl.n	8002114 <__addsf3+0x78>
 800210e:	4249      	negs	r1, r1
 8002110:	eb60 0040 	sbc.w	r0, r0, r0, lsl #1
 8002114:	f5b0 0f00 	cmp.w	r0, #8388608	; 0x800000
 8002118:	d313      	bcc.n	8002142 <__addsf3+0xa6>
 800211a:	f1b0 7f80 	cmp.w	r0, #16777216	; 0x1000000
 800211e:	d306      	bcc.n	800212e <__addsf3+0x92>
 8002120:	0840      	lsrs	r0, r0, #1
 8002122:	ea4f 0131 	mov.w	r1, r1, rrx
 8002126:	f102 0201 	add.w	r2, r2, #1
 800212a:	2afe      	cmp	r2, #254	; 0xfe
 800212c:	d251      	bcs.n	80021d2 <__addsf3+0x136>
 800212e:	f1b1 4f00 	cmp.w	r1, #2147483648	; 0x80000000
 8002132:	eb40 50c2 	adc.w	r0, r0, r2, lsl #23
 8002136:	bf08      	it	eq
 8002138:	f020 0001 	biceq.w	r0, r0, #1
 800213c:	ea40 0003 	orr.w	r0, r0, r3
 8002140:	4770      	bx	lr
 8002142:	0049      	lsls	r1, r1, #1
 8002144:	eb40 0000 	adc.w	r0, r0, r0
 8002148:	3a01      	subs	r2, #1
 800214a:	bf28      	it	cs
 800214c:	f5b0 0f00 	cmpcs.w	r0, #8388608	; 0x800000
 8002150:	d2ed      	bcs.n	800212e <__addsf3+0x92>
 8002152:	fab0 fc80 	clz	ip, r0
 8002156:	f1ac 0c08 	sub.w	ip, ip, #8
 800215a:	ebb2 020c 	subs.w	r2, r2, ip
 800215e:	fa00 f00c 	lsl.w	r0, r0, ip
 8002162:	bfaa      	itet	ge
 8002164:	eb00 50c2 	addge.w	r0, r0, r2, lsl #23
 8002168:	4252      	neglt	r2, r2
 800216a:	4318      	orrge	r0, r3
 800216c:	bfbc      	itt	lt
 800216e:	40d0      	lsrlt	r0, r2
 8002170:	4318      	orrlt	r0, r3
 8002172:	4770      	bx	lr
 8002174:	f092 0f00 	teq	r2, #0
 8002178:	f481 0100 	eor.w	r1, r1, #8388608	; 0x800000
 800217c:	bf06      	itte	eq
 800217e:	f480 0000 	eoreq.w	r0, r0, #8388608	; 0x800000
 8002182:	3201      	addeq	r2, #1
 8002184:	3b01      	subne	r3, #1
 8002186:	e7b5      	b.n	80020f4 <__addsf3+0x58>
 8002188:	ea4f 0341 	mov.w	r3, r1, lsl #1
 800218c:	ea7f 6c22 	mvns.w	ip, r2, asr #24
 8002190:	bf18      	it	ne
 8002192:	ea7f 6c23 	mvnsne.w	ip, r3, asr #24
 8002196:	d021      	beq.n	80021dc <__addsf3+0x140>
 8002198:	ea92 0f03 	teq	r2, r3
 800219c:	d004      	beq.n	80021a8 <__addsf3+0x10c>
 800219e:	f092 0f00 	teq	r2, #0
 80021a2:	bf08      	it	eq
 80021a4:	4608      	moveq	r0, r1
 80021a6:	4770      	bx	lr
 80021a8:	ea90 0f01 	teq	r0, r1
 80021ac:	bf1c      	itt	ne
 80021ae:	2000      	movne	r0, #0
 80021b0:	4770      	bxne	lr
 80021b2:	f012 4f7f 	tst.w	r2, #4278190080	; 0xff000000
 80021b6:	d104      	bne.n	80021c2 <__addsf3+0x126>
 80021b8:	0040      	lsls	r0, r0, #1
 80021ba:	bf28      	it	cs
 80021bc:	f040 4000 	orrcs.w	r0, r0, #2147483648	; 0x80000000
 80021c0:	4770      	bx	lr
 80021c2:	f112 7200 	adds.w	r2, r2, #33554432	; 0x2000000
 80021c6:	bf3c      	itt	cc
 80021c8:	f500 0000 	addcc.w	r0, r0, #8388608	; 0x800000
 80021cc:	4770      	bxcc	lr
 80021ce:	f000 4300 	and.w	r3, r0, #2147483648	; 0x80000000
 80021d2:	f043 40fe 	orr.w	r0, r3, #2130706432	; 0x7f000000
 80021d6:	f440 0000 	orr.w	r0, r0, #8388608	; 0x800000
 80021da:	4770      	bx	lr
 80021dc:	ea7f 6222 	mvns.w	r2, r2, asr #24
 80021e0:	bf16      	itet	ne
 80021e2:	4608      	movne	r0, r1
 80021e4:	ea7f 6323 	mvnseq.w	r3, r3, asr #24
 80021e8:	4601      	movne	r1, r0
 80021ea:	0242      	lsls	r2, r0, #9
 80021ec:	bf06      	itte	eq
 80021ee:	ea5f 2341 	movseq.w	r3, r1, lsl #9
 80021f2:	ea90 0f01 	teqeq	r0, r1
 80021f6:	f440 0080 	orrne.w	r0, r0, #4194304	; 0x400000
 80021fa:	4770      	bx	lr

080021fc <__aeabi_ui2f>:
 80021fc:	f04f 0300 	mov.w	r3, #0
 8002200:	e004      	b.n	800220c <__aeabi_i2f+0x8>
 8002202:	bf00      	nop

08002204 <__aeabi_i2f>:
 8002204:	f010 4300 	ands.w	r3, r0, #2147483648	; 0x80000000
 8002208:	bf48      	it	mi
 800220a:	4240      	negmi	r0, r0
 800220c:	ea5f 0c00 	movs.w	ip, r0
 8002210:	bf08      	it	eq
 8002212:	4770      	bxeq	lr
 8002214:	f043 4396 	orr.w	r3, r3, #1258291200	; 0x4b000000
 8002218:	4601      	mov	r1, r0
 800221a:	f04f 0000 	mov.w	r0, #0
 800221e:	e01c      	b.n	800225a <__aeabi_l2f+0x2a>

08002220 <__aeabi_ul2f>:
 8002220:	ea50 0201 	orrs.w	r2, r0, r1
 8002224:	bf08      	it	eq
 8002226:	4770      	bxeq	lr
 8002228:	f04f 0300 	mov.w	r3, #0
 800222c:	e00a      	b.n	8002244 <__aeabi_l2f+0x14>
 800222e:	bf00      	nop

08002230 <__aeabi_l2f>:
 8002230:	ea50 0201 	orrs.w	r2, r0, r1
 8002234:	bf08      	it	eq
 8002236:	4770      	bxeq	lr
 8002238:	f011 4300 	ands.w	r3, r1, #2147483648	; 0x80000000
 800223c:	d502      	bpl.n	8002244 <__aeabi_l2f+0x14>
 800223e:	4240      	negs	r0, r0
 8002240:	eb61 0141 	sbc.w	r1, r1, r1, lsl #1
 8002244:	ea5f 0c01 	movs.w	ip, r1
 8002248:	bf02      	ittt	eq
 800224a:	4684      	moveq	ip, r0
 800224c:	4601      	moveq	r1, r0
 800224e:	2000      	moveq	r0, #0
 8002250:	f043 43b6 	orr.w	r3, r3, #1526726656	; 0x5b000000
 8002254:	bf08      	it	eq
 8002256:	f1a3 5380 	subeq.w	r3, r3, #268435456	; 0x10000000
 800225a:	f5a3 0300 	sub.w	r3, r3, #8388608	; 0x800000
 800225e:	fabc f28c 	clz	r2, ip
 8002262:	3a08      	subs	r2, #8
 8002264:	eba3 53c2 	sub.w	r3, r3, r2, lsl #23
 8002268:	db10      	blt.n	800228c <__aeabi_l2f+0x5c>
 800226a:	fa01 fc02 	lsl.w	ip, r1, r2
 800226e:	4463      	add	r3, ip
 8002270:	fa00 fc02 	lsl.w	ip, r0, r2
 8002274:	f1c2 0220 	rsb	r2, r2, #32
 8002278:	f1bc 4f00 	cmp.w	ip, #2147483648	; 0x80000000
 800227c:	fa20 f202 	lsr.w	r2, r0, r2
 8002280:	eb43 0002 	adc.w	r0, r3, r2
 8002284:	bf08      	it	eq
 8002286:	f020 0001 	biceq.w	r0, r0, #1
 800228a:	4770      	bx	lr
 800228c:	f102 0220 	add.w	r2, r2, #32
 8002290:	fa01 fc02 	lsl.w	ip, r1, r2
 8002294:	f1c2 0220 	rsb	r2, r2, #32
 8002298:	ea50 004c 	orrs.w	r0, r0, ip, lsl #1
 800229c:	fa21 f202 	lsr.w	r2, r1, r2
 80022a0:	eb43 0002 	adc.w	r0, r3, r2
 80022a4:	bf08      	it	eq
 80022a6:	ea20 70dc 	biceq.w	r0, r0, ip, lsr #31
 80022aa:	4770      	bx	lr

080022ac <__aeabi_fmul>:
 80022ac:	f04f 0cff 	mov.w	ip, #255	; 0xff
 80022b0:	ea1c 52d0 	ands.w	r2, ip, r0, lsr #23
 80022b4:	bf1e      	ittt	ne
 80022b6:	ea1c 53d1 	andsne.w	r3, ip, r1, lsr #23
 80022ba:	ea92 0f0c 	teqne	r2, ip
 80022be:	ea93 0f0c 	teqne	r3, ip
 80022c2:	d06f      	beq.n	80023a4 <__aeabi_fmul+0xf8>
 80022c4:	441a      	add	r2, r3
 80022c6:	ea80 0c01 	eor.w	ip, r0, r1
 80022ca:	0240      	lsls	r0, r0, #9
 80022cc:	bf18      	it	ne
 80022ce:	ea5f 2141 	movsne.w	r1, r1, lsl #9
 80022d2:	d01e      	beq.n	8002312 <__aeabi_fmul+0x66>
 80022d4:	f04f 6300 	mov.w	r3, #134217728	; 0x8000000
 80022d8:	ea43 1050 	orr.w	r0, r3, r0, lsr #5
 80022dc:	ea43 1151 	orr.w	r1, r3, r1, lsr #5
 80022e0:	fba0 3101 	umull	r3, r1, r0, r1
 80022e4:	f00c 4000 	and.w	r0, ip, #2147483648	; 0x80000000
 80022e8:	f5b1 0f00 	cmp.w	r1, #8388608	; 0x800000
 80022ec:	bf3e      	ittt	cc
 80022ee:	0049      	lslcc	r1, r1, #1
 80022f0:	ea41 71d3 	orrcc.w	r1, r1, r3, lsr #31
 80022f4:	005b      	lslcc	r3, r3, #1
 80022f6:	ea40 0001 	orr.w	r0, r0, r1
 80022fa:	f162 027f 	sbc.w	r2, r2, #127	; 0x7f
 80022fe:	2afd      	cmp	r2, #253	; 0xfd
 8002300:	d81d      	bhi.n	800233e <__aeabi_fmul+0x92>
 8002302:	f1b3 4f00 	cmp.w	r3, #2147483648	; 0x80000000
 8002306:	eb40 50c2 	adc.w	r0, r0, r2, lsl #23
 800230a:	bf08      	it	eq
 800230c:	f020 0001 	biceq.w	r0, r0, #1
 8002310:	4770      	bx	lr
 8002312:	f090 0f00 	teq	r0, #0
 8002316:	f00c 4c00 	and.w	ip, ip, #2147483648	; 0x80000000
 800231a:	bf08      	it	eq
 800231c:	0249      	lsleq	r1, r1, #9
 800231e:	ea4c 2050 	orr.w	r0, ip, r0, lsr #9
 8002322:	ea40 2051 	orr.w	r0, r0, r1, lsr #9
 8002326:	3a7f      	subs	r2, #127	; 0x7f
 8002328:	bfc2      	ittt	gt
 800232a:	f1d2 03ff 	rsbsgt	r3, r2, #255	; 0xff
 800232e:	ea40 50c2 	orrgt.w	r0, r0, r2, lsl #23
 8002332:	4770      	bxgt	lr
 8002334:	f440 0000 	orr.w	r0, r0, #8388608	; 0x800000
 8002338:	f04f 0300 	mov.w	r3, #0
 800233c:	3a01      	subs	r2, #1
 800233e:	dc5d      	bgt.n	80023fc <__aeabi_fmul+0x150>
 8002340:	f112 0f19 	cmn.w	r2, #25
 8002344:	bfdc      	itt	le
 8002346:	f000 4000 	andle.w	r0, r0, #2147483648	; 0x80000000
 800234a:	4770      	bxle	lr
 800234c:	f1c2 0200 	rsb	r2, r2, #0
 8002350:	0041      	lsls	r1, r0, #1
 8002352:	fa21 f102 	lsr.w	r1, r1, r2
 8002356:	f1c2 0220 	rsb	r2, r2, #32
 800235a:	fa00 fc02 	lsl.w	ip, r0, r2
 800235e:	ea5f 0031 	movs.w	r0, r1, rrx
 8002362:	f140 0000 	adc.w	r0, r0, #0
 8002366:	ea53 034c 	orrs.w	r3, r3, ip, lsl #1
 800236a:	bf08      	it	eq
 800236c:	ea20 70dc 	biceq.w	r0, r0, ip, lsr #31
 8002370:	4770      	bx	lr
 8002372:	f092 0f00 	teq	r2, #0
 8002376:	f000 4c00 	and.w	ip, r0, #2147483648	; 0x80000000
 800237a:	bf02      	ittt	eq
 800237c:	0040      	lsleq	r0, r0, #1
 800237e:	f410 0f00 	tsteq.w	r0, #8388608	; 0x800000
 8002382:	3a01      	subeq	r2, #1
 8002384:	d0f9      	beq.n	800237a <__aeabi_fmul+0xce>
 8002386:	ea40 000c 	orr.w	r0, r0, ip
 800238a:	f093 0f00 	teq	r3, #0
 800238e:	f001 4c00 	and.w	ip, r1, #2147483648	; 0x80000000
 8002392:	bf02      	ittt	eq
 8002394:	0049      	lsleq	r1, r1, #1
 8002396:	f411 0f00 	tsteq.w	r1, #8388608	; 0x800000
 800239a:	3b01      	subeq	r3, #1
 800239c:	d0f9      	beq.n	8002392 <__aeabi_fmul+0xe6>
 800239e:	ea41 010c 	orr.w	r1, r1, ip
 80023a2:	e78f      	b.n	80022c4 <__aeabi_fmul+0x18>
 80023a4:	ea0c 53d1 	and.w	r3, ip, r1, lsr #23
 80023a8:	ea92 0f0c 	teq	r2, ip
 80023ac:	bf18      	it	ne
 80023ae:	ea93 0f0c 	teqne	r3, ip
 80023b2:	d00a      	beq.n	80023ca <__aeabi_fmul+0x11e>
 80023b4:	f030 4c00 	bics.w	ip, r0, #2147483648	; 0x80000000
 80023b8:	bf18      	it	ne
 80023ba:	f031 4c00 	bicsne.w	ip, r1, #2147483648	; 0x80000000
 80023be:	d1d8      	bne.n	8002372 <__aeabi_fmul+0xc6>
 80023c0:	ea80 0001 	eor.w	r0, r0, r1
 80023c4:	f000 4000 	and.w	r0, r0, #2147483648	; 0x80000000
 80023c8:	4770      	bx	lr
 80023ca:	f090 0f00 	teq	r0, #0
 80023ce:	bf17      	itett	ne
 80023d0:	f090 4f00 	teqne	r0, #2147483648	; 0x80000000
 80023d4:	4608      	moveq	r0, r1
 80023d6:	f091 0f00 	teqne	r1, #0
 80023da:	f091 4f00 	teqne	r1, #2147483648	; 0x80000000
 80023de:	d014      	beq.n	800240a <__aeabi_fmul+0x15e>
 80023e0:	ea92 0f0c 	teq	r2, ip
 80023e4:	d101      	bne.n	80023ea <__aeabi_fmul+0x13e>
 80023e6:	0242      	lsls	r2, r0, #9
 80023e8:	d10f      	bne.n	800240a <__aeabi_fmul+0x15e>
 80023ea:	ea93 0f0c 	teq	r3, ip
 80023ee:	d103      	bne.n	80023f8 <__aeabi_fmul+0x14c>
 80023f0:	024b      	lsls	r3, r1, #9
 80023f2:	bf18      	it	ne
 80023f4:	4608      	movne	r0, r1
 80023f6:	d108      	bne.n	800240a <__aeabi_fmul+0x15e>
 80023f8:	ea80 0001 	eor.w	r0, r0, r1
 80023fc:	f000 4000 	and.w	r0, r0, #2147483648	; 0x80000000
 8002400:	f040 40fe 	orr.w	r0, r0, #2130706432	; 0x7f000000
 8002404:	f440 0000 	orr.w	r0, r0, #8388608	; 0x800000
 8002408:	4770      	bx	lr
 800240a:	f040 40fe 	orr.w	r0, r0, #2130706432	; 0x7f000000
 800240e:	f440 0040 	orr.w	r0, r0, #12582912	; 0xc00000
 8002412:	4770      	bx	lr

08002414 <__aeabi_fdiv>:
 8002414:	f04f 0cff 	mov.w	ip, #255	; 0xff
 8002418:	ea1c 52d0 	ands.w	r2, ip, r0, lsr #23
 800241c:	bf1e      	ittt	ne
 800241e:	ea1c 53d1 	andsne.w	r3, ip, r1, lsr #23
 8002422:	ea92 0f0c 	teqne	r2, ip
 8002426:	ea93 0f0c 	teqne	r3, ip
 800242a:	d069      	beq.n	8002500 <__aeabi_fdiv+0xec>
 800242c:	eba2 0203 	sub.w	r2, r2, r3
 8002430:	ea80 0c01 	eor.w	ip, r0, r1
 8002434:	0249      	lsls	r1, r1, #9
 8002436:	ea4f 2040 	mov.w	r0, r0, lsl #9
 800243a:	d037      	beq.n	80024ac <__aeabi_fdiv+0x98>
 800243c:	f04f 5380 	mov.w	r3, #268435456	; 0x10000000
 8002440:	ea43 1111 	orr.w	r1, r3, r1, lsr #4
 8002444:	ea43 1310 	orr.w	r3, r3, r0, lsr #4
 8002448:	f00c 4000 	and.w	r0, ip, #2147483648	; 0x80000000
 800244c:	428b      	cmp	r3, r1
 800244e:	bf38      	it	cc
 8002450:	005b      	lslcc	r3, r3, #1
 8002452:	f142 027d 	adc.w	r2, r2, #125	; 0x7d
 8002456:	f44f 0c00 	mov.w	ip, #8388608	; 0x800000
 800245a:	428b      	cmp	r3, r1
 800245c:	bf24      	itt	cs
 800245e:	1a5b      	subcs	r3, r3, r1
 8002460:	ea40 000c 	orrcs.w	r0, r0, ip
 8002464:	ebb3 0f51 	cmp.w	r3, r1, lsr #1
 8002468:	bf24      	itt	cs
 800246a:	eba3 0351 	subcs.w	r3, r3, r1, lsr #1
 800246e:	ea40 005c 	orrcs.w	r0, r0, ip, lsr #1
 8002472:	ebb3 0f91 	cmp.w	r3, r1, lsr #2
 8002476:	bf24      	itt	cs
 8002478:	eba3 0391 	subcs.w	r3, r3, r1, lsr #2
 800247c:	ea40 009c 	orrcs.w	r0, r0, ip, lsr #2
 8002480:	ebb3 0fd1 	cmp.w	r3, r1, lsr #3
 8002484:	bf24      	itt	cs
 8002486:	eba3 03d1 	subcs.w	r3, r3, r1, lsr #3
 800248a:	ea40 00dc 	orrcs.w	r0, r0, ip, lsr #3
 800248e:	011b      	lsls	r3, r3, #4
 8002490:	bf18      	it	ne
 8002492:	ea5f 1c1c 	movsne.w	ip, ip, lsr #4
 8002496:	d1e0      	bne.n	800245a <__aeabi_fdiv+0x46>
 8002498:	2afd      	cmp	r2, #253	; 0xfd
 800249a:	f63f af50 	bhi.w	800233e <__aeabi_fmul+0x92>
 800249e:	428b      	cmp	r3, r1
 80024a0:	eb40 50c2 	adc.w	r0, r0, r2, lsl #23
 80024a4:	bf08      	it	eq
 80024a6:	f020 0001 	biceq.w	r0, r0, #1
 80024aa:	4770      	bx	lr
 80024ac:	f00c 4c00 	and.w	ip, ip, #2147483648	; 0x80000000
 80024b0:	ea4c 2050 	orr.w	r0, ip, r0, lsr #9
 80024b4:	327f      	adds	r2, #127	; 0x7f
 80024b6:	bfc2      	ittt	gt
 80024b8:	f1d2 03ff 	rsbsgt	r3, r2, #255	; 0xff
 80024bc:	ea40 50c2 	orrgt.w	r0, r0, r2, lsl #23
 80024c0:	4770      	bxgt	lr
 80024c2:	f440 0000 	orr.w	r0, r0, #8388608	; 0x800000
 80024c6:	f04f 0300 	mov.w	r3, #0
 80024ca:	3a01      	subs	r2, #1
 80024cc:	e737      	b.n	800233e <__aeabi_fmul+0x92>
 80024ce:	f092 0f00 	teq	r2, #0
 80024d2:	f000 4c00 	and.w	ip, r0, #2147483648	; 0x80000000
 80024d6:	bf02      	ittt	eq
 80024d8:	0040      	lsleq	r0, r0, #1
 80024da:	f410 0f00 	tsteq.w	r0, #8388608	; 0x800000
 80024de:	3a01      	subeq	r2, #1
 80024e0:	d0f9      	beq.n	80024d6 <__aeabi_fdiv+0xc2>
 80024e2:	ea40 000c 	orr.w	r0, r0, ip
 80024e6:	f093 0f00 	teq	r3, #0
 80024ea:	f001 4c00 	and.w	ip, r1, #2147483648	; 0x80000000
 80024ee:	bf02      	ittt	eq
 80024f0:	0049      	lsleq	r1, r1, #1
 80024f2:	f411 0f00 	tsteq.w	r1, #8388608	; 0x800000
 80024f6:	3b01      	subeq	r3, #1
 80024f8:	d0f9      	beq.n	80024ee <__aeabi_fdiv+0xda>
 80024fa:	ea41 010c 	orr.w	r1, r1, ip
 80024fe:	e795      	b.n	800242c <__aeabi_fdiv+0x18>
 8002500:	ea0c 53d1 	and.w	r3, ip, r1, lsr #23
 8002504:	ea92 0f0c 	teq	r2, ip
 8002508:	d108      	bne.n	800251c <__aeabi_fdiv+0x108>
 800250a:	0242      	lsls	r2, r0, #9
 800250c:	f47f af7d 	bne.w	800240a <__aeabi_fmul+0x15e>
 8002510:	ea93 0f0c 	teq	r3, ip
 8002514:	f47f af70 	bne.w	80023f8 <__aeabi_fmul+0x14c>
 8002518:	4608      	mov	r0, r1
 800251a:	e776      	b.n	800240a <__aeabi_fmul+0x15e>
 800251c:	ea93 0f0c 	teq	r3, ip
 8002520:	d104      	bne.n	800252c <__aeabi_fdiv+0x118>
 8002522:	024b      	lsls	r3, r1, #9
 8002524:	f43f af4c 	beq.w	80023c0 <__aeabi_fmul+0x114>
 8002528:	4608      	mov	r0, r1
 800252a:	e76e      	b.n	800240a <__aeabi_fmul+0x15e>
 800252c:	f030 4c00 	bics.w	ip, r0, #2147483648	; 0x80000000
 8002530:	bf18      	it	ne
 8002532:	f031 4c00 	bicsne.w	ip, r1, #2147483648	; 0x80000000
 8002536:	d1ca      	bne.n	80024ce <__aeabi_fdiv+0xba>
 8002538:	f030 4200 	bics.w	r2, r0, #2147483648	; 0x80000000
 800253c:	f47f af5c 	bne.w	80023f8 <__aeabi_fmul+0x14c>
 8002540:	f031 4300 	bics.w	r3, r1, #2147483648	; 0x80000000
 8002544:	f47f af3c 	bne.w	80023c0 <__aeabi_fmul+0x114>
 8002548:	e75f      	b.n	800240a <__aeabi_fmul+0x15e>
 800254a:	bf00      	nop

0800254c <__gesf2>:
 800254c:	f04f 3cff 	mov.w	ip, #4294967295	; 0xffffffff
 8002550:	e006      	b.n	8002560 <__cmpsf2+0x4>
 8002552:	bf00      	nop

08002554 <__lesf2>:
 8002554:	f04f 0c01 	mov.w	ip, #1
 8002558:	e002      	b.n	8002560 <__cmpsf2+0x4>
 800255a:	bf00      	nop

0800255c <__cmpsf2>:
 800255c:	f04f 0c01 	mov.w	ip, #1
 8002560:	f84d cd04 	str.w	ip, [sp, #-4]!
 8002564:	ea4f 0240 	mov.w	r2, r0, lsl #1
 8002568:	ea4f 0341 	mov.w	r3, r1, lsl #1
 800256c:	ea7f 6c22 	mvns.w	ip, r2, asr #24
 8002570:	bf18      	it	ne
 8002572:	ea7f 6c23 	mvnsne.w	ip, r3, asr #24
 8002576:	d011      	beq.n	800259c <__cmpsf2+0x40>
 8002578:	b001      	add	sp, #4
 800257a:	ea52 0c53 	orrs.w	ip, r2, r3, lsr #1
 800257e:	bf18      	it	ne
 8002580:	ea90 0f01 	teqne	r0, r1
 8002584:	bf58      	it	pl
 8002586:	ebb2 0003 	subspl.w	r0, r2, r3
 800258a:	bf88      	it	hi
 800258c:	17c8      	asrhi	r0, r1, #31
 800258e:	bf38      	it	cc
 8002590:	ea6f 70e1 	mvncc.w	r0, r1, asr #31
 8002594:	bf18      	it	ne
 8002596:	f040 0001 	orrne.w	r0, r0, #1
 800259a:	4770      	bx	lr
 800259c:	ea7f 6c22 	mvns.w	ip, r2, asr #24
 80025a0:	d102      	bne.n	80025a8 <__cmpsf2+0x4c>
 80025a2:	ea5f 2c40 	movs.w	ip, r0, lsl #9
 80025a6:	d105      	bne.n	80025b4 <__cmpsf2+0x58>
 80025a8:	ea7f 6c23 	mvns.w	ip, r3, asr #24
 80025ac:	d1e4      	bne.n	8002578 <__cmpsf2+0x1c>
 80025ae:	ea5f 2c41 	movs.w	ip, r1, lsl #9
 80025b2:	d0e1      	beq.n	8002578 <__cmpsf2+0x1c>
 80025b4:	f85d 0b04 	ldr.w	r0, [sp], #4
 80025b8:	4770      	bx	lr
 80025ba:	bf00      	nop

080025bc <__aeabi_cfrcmple>:
 80025bc:	4684      	mov	ip, r0
 80025be:	4608      	mov	r0, r1
 80025c0:	4661      	mov	r1, ip
 80025c2:	e7ff      	b.n	80025c4 <__aeabi_cfcmpeq>

080025c4 <__aeabi_cfcmpeq>:
 80025c4:	b50f      	push	{r0, r1, r2, r3, lr}
 80025c6:	f7ff ffc9 	bl	800255c <__cmpsf2>
 80025ca:	2800      	cmp	r0, #0
 80025cc:	bf48      	it	mi
 80025ce:	f110 0f00 	cmnmi.w	r0, #0
 80025d2:	bd0f      	pop	{r0, r1, r2, r3, pc}

080025d4 <__aeabi_fcmpeq>:
 80025d4:	f84d ed08 	str.w	lr, [sp, #-8]!
 80025d8:	f7ff fff4 	bl	80025c4 <__aeabi_cfcmpeq>
 80025dc:	bf0c      	ite	eq
 80025de:	2001      	moveq	r0, #1
 80025e0:	2000      	movne	r0, #0
 80025e2:	f85d fb08 	ldr.w	pc, [sp], #8
 80025e6:	bf00      	nop

080025e8 <__aeabi_fcmplt>:
 80025e8:	f84d ed08 	str.w	lr, [sp, #-8]!
 80025ec:	f7ff ffea 	bl	80025c4 <__aeabi_cfcmpeq>
 80025f0:	bf34      	ite	cc
 80025f2:	2001      	movcc	r0, #1
 80025f4:	2000      	movcs	r0, #0
 80025f6:	f85d fb08 	ldr.w	pc, [sp], #8
 80025fa:	bf00      	nop

080025fc <__aeabi_fcmple>:
 80025fc:	f84d ed08 	str.w	lr, [sp, #-8]!
 8002600:	f7ff ffe0 	bl	80025c4 <__aeabi_cfcmpeq>
 8002604:	bf94      	ite	ls
 8002606:	2001      	movls	r0, #1
 8002608:	2000      	movhi	r0, #0
 800260a:	f85d fb08 	ldr.w	pc, [sp], #8
 800260e:	bf00      	nop

08002610 <__aeabi_fcmpge>:
 8002610:	f84d ed08 	str.w	lr, [sp, #-8]!
 8002614:	f7ff ffd2 	bl	80025bc <__aeabi_cfrcmple>
 8002618:	bf94      	ite	ls
 800261a:	2001      	movls	r0, #1
 800261c:	2000      	movhi	r0, #0
 800261e:	f85d fb08 	ldr.w	pc, [sp], #8
 8002622:	bf00      	nop

08002624 <__aeabi_fcmpgt>:
 8002624:	f84d ed08 	str.w	lr, [sp, #-8]!
 8002628:	f7ff ffc8 	bl	80025bc <__aeabi_cfrcmple>
 800262c:	bf34      	ite	cc
 800262e:	2001      	movcc	r0, #1
 8002630:	2000      	movcs	r0, #0
 8002632:	f85d fb08 	ldr.w	pc, [sp], #8
 8002636:	bf00      	nop

08002638 <__aeabi_f2uiz>:
 8002638:	0042      	lsls	r2, r0, #1
 800263a:	d20e      	bcs.n	800265a <__aeabi_f2uiz+0x22>
 800263c:	f1b2 4ffe 	cmp.w	r2, #2130706432	; 0x7f000000
 8002640:	d30b      	bcc.n	800265a <__aeabi_f2uiz+0x22>
 8002642:	f04f 039e 	mov.w	r3, #158	; 0x9e
 8002646:	ebb3 6212 	subs.w	r2, r3, r2, lsr #24
 800264a:	d409      	bmi.n	8002660 <__aeabi_f2uiz+0x28>
 800264c:	ea4f 2300 	mov.w	r3, r0, lsl #8
 8002650:	f043 4300 	orr.w	r3, r3, #2147483648	; 0x80000000
 8002654:	fa23 f002 	lsr.w	r0, r3, r2
 8002658:	4770      	bx	lr
 800265a:	f04f 0000 	mov.w	r0, #0
 800265e:	4770      	bx	lr
 8002660:	f112 0f61 	cmn.w	r2, #97	; 0x61
 8002664:	d101      	bne.n	800266a <__aeabi_f2uiz+0x32>
 8002666:	0242      	lsls	r2, r0, #9
 8002668:	d102      	bne.n	8002670 <__aeabi_f2uiz+0x38>
 800266a:	f04f 30ff 	mov.w	r0, #4294967295	; 0xffffffff
 800266e:	4770      	bx	lr
 8002670:	f04f 0000 	mov.w	r0, #0
 8002674:	4770      	bx	lr
 8002676:	bf00      	nop

08002678 <gpio_set_mode>:
 8002678:	e92d 41f0 	stmdb	sp!, {r4, r5, r6, r7, r8, lr}
 800267c:	f04f 0c0f 	mov.w	ip, #15
 8002680:	2500      	movs	r5, #0
 8002682:	6807      	ldr	r7, [r0, #0]
 8002684:	6846      	ldr	r6, [r0, #4]
 8002686:	fa43 f405 	asr.w	r4, r3, r5
 800268a:	07e4      	lsls	r4, r4, #31
 800268c:	d51c      	bpl.n	80026c8 <gpio_set_mode+0x50>
 800268e:	2d07      	cmp	r5, #7
 8002690:	bf94      	ite	ls
 8002692:	46be      	movls	lr, r7
 8002694:	46b6      	movhi	lr, r6
 8002696:	b2ac      	uxth	r4, r5
 8002698:	ea4f 0484 	mov.w	r4, r4, lsl #2
 800269c:	bf8a      	itet	hi
 800269e:	3c20      	subhi	r4, #32
 80026a0:	b2a4      	uxthls	r4, r4
 80026a2:	b2a4      	uxthhi	r4, r4
 80026a4:	fa0c f804 	lsl.w	r8, ip, r4
 80026a8:	ea2e 0808 	bic.w	r8, lr, r8
 80026ac:	f104 0e02 	add.w	lr, r4, #2
 80026b0:	fa02 fe0e 	lsl.w	lr, r2, lr
 80026b4:	fa01 f404 	lsl.w	r4, r1, r4
 80026b8:	ea4e 0404 	orr.w	r4, lr, r4
 80026bc:	ea44 0408 	orr.w	r4, r4, r8
 80026c0:	2d07      	cmp	r5, #7
 80026c2:	bf94      	ite	ls
 80026c4:	4627      	movls	r7, r4
 80026c6:	4626      	movhi	r6, r4
 80026c8:	3501      	adds	r5, #1
 80026ca:	2d10      	cmp	r5, #16
 80026cc:	d1db      	bne.n	8002686 <gpio_set_mode+0xe>
 80026ce:	6007      	str	r7, [r0, #0]
 80026d0:	6046      	str	r6, [r0, #4]
 80026d2:	e8bd 81f0 	ldmia.w	sp!, {r4, r5, r6, r7, r8, pc}

080026d6 <gpio_set>:
 80026d6:	6101      	str	r1, [r0, #16]
 80026d8:	4770      	bx	lr

080026da <gpio_clear>:
 80026da:	0409      	lsls	r1, r1, #16
 80026dc:	6101      	str	r1, [r0, #16]
 80026de:	4770      	bx	lr

080026e0 <gpio_toggle>:
 80026e0:	68c3      	ldr	r3, [r0, #12]
 80026e2:	ea01 0203 	and.w	r2, r1, r3
 80026e6:	ea21 0103 	bic.w	r1, r1, r3
 80026ea:	ea41 4102 	orr.w	r1, r1, r2, lsl #16
 80026ee:	6101      	str	r1, [r0, #16]
 80026f0:	4770      	bx	lr
	...

080026f4 <rcc_osc_on.part.1>:
 80026f4:	4a02      	ldr	r2, [pc, #8]	; (8002700 <rcc_osc_on.part.1+0xc>)
 80026f6:	6813      	ldr	r3, [r2, #0]
 80026f8:	f043 7380 	orr.w	r3, r3, #16777216	; 0x1000000
 80026fc:	6013      	str	r3, [r2, #0]
 80026fe:	4770      	bx	lr
 8002700:	40021000 	.word	0x40021000

08002704 <rcc_is_osc_ready>:
 8002704:	2806      	cmp	r0, #6
 8002706:	d822      	bhi.n	800274e <rcc_is_osc_ready+0x4a>
 8002708:	e8df f000 	tbb	[pc, r0]
 800270c:	130e0904 	.word	0x130e0904
 8002710:	1d18      	.short	0x1d18
 8002712:	1f          	.byte	0x1f
 8002713:	00          	.byte	0x00
 8002714:	4b0f      	ldr	r3, [pc, #60]	; (8002754 <rcc_is_osc_ready+0x50>)
 8002716:	6818      	ldr	r0, [r3, #0]
 8002718:	f3c0 6040 	ubfx	r0, r0, #25, #1
 800271c:	4770      	bx	lr
 800271e:	4b0d      	ldr	r3, [pc, #52]	; (8002754 <rcc_is_osc_ready+0x50>)
 8002720:	6818      	ldr	r0, [r3, #0]
 8002722:	f3c0 60c0 	ubfx	r0, r0, #27, #1
 8002726:	4770      	bx	lr
 8002728:	4b0a      	ldr	r3, [pc, #40]	; (8002754 <rcc_is_osc_ready+0x50>)
 800272a:	6818      	ldr	r0, [r3, #0]
 800272c:	f3c0 7040 	ubfx	r0, r0, #29, #1
 8002730:	4770      	bx	lr
 8002732:	4b08      	ldr	r3, [pc, #32]	; (8002754 <rcc_is_osc_ready+0x50>)
 8002734:	6818      	ldr	r0, [r3, #0]
 8002736:	f3c0 4040 	ubfx	r0, r0, #17, #1
 800273a:	4770      	bx	lr
 800273c:	4b05      	ldr	r3, [pc, #20]	; (8002754 <rcc_is_osc_ready+0x50>)
 800273e:	6818      	ldr	r0, [r3, #0]
 8002740:	f3c0 0040 	ubfx	r0, r0, #1, #1
 8002744:	4770      	bx	lr
 8002746:	4b04      	ldr	r3, [pc, #16]	; (8002758 <rcc_is_osc_ready+0x54>)
 8002748:	e7f9      	b.n	800273e <rcc_is_osc_ready+0x3a>
 800274a:	4b04      	ldr	r3, [pc, #16]	; (800275c <rcc_is_osc_ready+0x58>)
 800274c:	e7f7      	b.n	800273e <rcc_is_osc_ready+0x3a>
 800274e:	2000      	movs	r0, #0
 8002750:	4770      	bx	lr
 8002752:	bf00      	nop
 8002754:	40021000 	.word	0x40021000
 8002758:	40021020 	.word	0x40021020
 800275c:	40021024 	.word	0x40021024

08002760 <rcc_wait_for_osc_ready>:
 8002760:	4602      	mov	r2, r0
 8002762:	b508      	push	{r3, lr}
 8002764:	4610      	mov	r0, r2
 8002766:	f7ff ffcd 	bl	8002704 <rcc_is_osc_ready>
 800276a:	2800      	cmp	r0, #0
 800276c:	d0fa      	beq.n	8002764 <rcc_wait_for_osc_ready+0x4>
 800276e:	bd08      	pop	{r3, pc}

08002770 <rcc_osc_on>:
 8002770:	2806      	cmp	r0, #6
 8002772:	d80c      	bhi.n	800278e <rcc_osc_on+0x1e>
 8002774:	e8df f000 	tbb	[pc, r0]
 8002778:	110c0604 	.word	0x110c0604
 800277c:	1b16      	.short	0x1b16
 800277e:	1d          	.byte	0x1d
 800277f:	00          	.byte	0x00
 8002780:	f7ff bfb8 	b.w	80026f4 <rcc_osc_on.part.1>
 8002784:	4a0c      	ldr	r2, [pc, #48]	; (80027b8 <rcc_osc_on+0x48>)
 8002786:	6813      	ldr	r3, [r2, #0]
 8002788:	f043 6380 	orr.w	r3, r3, #67108864	; 0x4000000
 800278c:	6013      	str	r3, [r2, #0]
 800278e:	4770      	bx	lr
 8002790:	4a09      	ldr	r2, [pc, #36]	; (80027b8 <rcc_osc_on+0x48>)
 8002792:	6813      	ldr	r3, [r2, #0]
 8002794:	f043 5380 	orr.w	r3, r3, #268435456	; 0x10000000
 8002798:	e7f8      	b.n	800278c <rcc_osc_on+0x1c>
 800279a:	4a07      	ldr	r2, [pc, #28]	; (80027b8 <rcc_osc_on+0x48>)
 800279c:	6813      	ldr	r3, [r2, #0]
 800279e:	f443 3380 	orr.w	r3, r3, #65536	; 0x10000
 80027a2:	e7f3      	b.n	800278c <rcc_osc_on+0x1c>
 80027a4:	4a04      	ldr	r2, [pc, #16]	; (80027b8 <rcc_osc_on+0x48>)
 80027a6:	6813      	ldr	r3, [r2, #0]
 80027a8:	f043 0301 	orr.w	r3, r3, #1
 80027ac:	e7ee      	b.n	800278c <rcc_osc_on+0x1c>
 80027ae:	4a03      	ldr	r2, [pc, #12]	; (80027bc <rcc_osc_on+0x4c>)
 80027b0:	e7f9      	b.n	80027a6 <rcc_osc_on+0x36>
 80027b2:	4a03      	ldr	r2, [pc, #12]	; (80027c0 <rcc_osc_on+0x50>)
 80027b4:	e7f7      	b.n	80027a6 <rcc_osc_on+0x36>
 80027b6:	bf00      	nop
 80027b8:	40021000 	.word	0x40021000
 80027bc:	40021020 	.word	0x40021020
 80027c0:	40021024 	.word	0x40021024

080027c4 <rcc_set_sysclk_source>:
 80027c4:	4a03      	ldr	r2, [pc, #12]	; (80027d4 <rcc_set_sysclk_source+0x10>)
 80027c6:	6813      	ldr	r3, [r2, #0]
 80027c8:	f023 0303 	bic.w	r3, r3, #3
 80027cc:	4318      	orrs	r0, r3
 80027ce:	6010      	str	r0, [r2, #0]
 80027d0:	4770      	bx	lr
 80027d2:	bf00      	nop
 80027d4:	40021004 	.word	0x40021004

080027d8 <rcc_set_pll_multiplication_factor>:
 80027d8:	4a03      	ldr	r2, [pc, #12]	; (80027e8 <rcc_set_pll_multiplication_factor+0x10>)
 80027da:	6813      	ldr	r3, [r2, #0]
 80027dc:	f423 1370 	bic.w	r3, r3, #3932160	; 0x3c0000
 80027e0:	ea43 4080 	orr.w	r0, r3, r0, lsl #18
 80027e4:	6010      	str	r0, [r2, #0]
 80027e6:	4770      	bx	lr
 80027e8:	40021004 	.word	0x40021004

080027ec <rcc_set_pll_source>:
 80027ec:	4a03      	ldr	r2, [pc, #12]	; (80027fc <rcc_set_pll_source+0x10>)
 80027ee:	6813      	ldr	r3, [r2, #0]
 80027f0:	f423 3380 	bic.w	r3, r3, #65536	; 0x10000
 80027f4:	ea43 4000 	orr.w	r0, r3, r0, lsl #16
 80027f8:	6010      	str	r0, [r2, #0]
 80027fa:	4770      	bx	lr
 80027fc:	40021004 	.word	0x40021004

08002800 <rcc_set_pllxtpre>:
 8002800:	4a03      	ldr	r2, [pc, #12]	; (8002810 <rcc_set_pllxtpre+0x10>)
 8002802:	6813      	ldr	r3, [r2, #0]
 8002804:	f423 3300 	bic.w	r3, r3, #131072	; 0x20000
 8002808:	ea43 4040 	orr.w	r0, r3, r0, lsl #17
 800280c:	6010      	str	r0, [r2, #0]
 800280e:	4770      	bx	lr
 8002810:	40021004 	.word	0x40021004

08002814 <rcc_set_adcpre>:
 8002814:	4a03      	ldr	r2, [pc, #12]	; (8002824 <rcc_set_adcpre+0x10>)
 8002816:	6813      	ldr	r3, [r2, #0]
 8002818:	f423 4340 	bic.w	r3, r3, #49152	; 0xc000
 800281c:	ea43 3080 	orr.w	r0, r3, r0, lsl #14
 8002820:	6010      	str	r0, [r2, #0]
 8002822:	4770      	bx	lr
 8002824:	40021004 	.word	0x40021004

08002828 <rcc_set_ppre2>:
 8002828:	4a03      	ldr	r2, [pc, #12]	; (8002838 <rcc_set_ppre2+0x10>)
 800282a:	6813      	ldr	r3, [r2, #0]
 800282c:	f423 5360 	bic.w	r3, r3, #14336	; 0x3800
 8002830:	ea43 20c0 	orr.w	r0, r3, r0, lsl #11
 8002834:	6010      	str	r0, [r2, #0]
 8002836:	4770      	bx	lr
 8002838:	40021004 	.word	0x40021004

0800283c <rcc_set_ppre1>:
 800283c:	4a03      	ldr	r2, [pc, #12]	; (800284c <rcc_set_ppre1+0x10>)
 800283e:	6813      	ldr	r3, [r2, #0]
 8002840:	f423 63e0 	bic.w	r3, r3, #1792	; 0x700
 8002844:	ea43 2000 	orr.w	r0, r3, r0, lsl #8
 8002848:	6010      	str	r0, [r2, #0]
 800284a:	4770      	bx	lr
 800284c:	40021004 	.word	0x40021004

08002850 <rcc_set_hpre>:
 8002850:	4a03      	ldr	r2, [pc, #12]	; (8002860 <rcc_set_hpre+0x10>)
 8002852:	6813      	ldr	r3, [r2, #0]
 8002854:	f023 03f0 	bic.w	r3, r3, #240	; 0xf0
 8002858:	ea43 1000 	orr.w	r0, r3, r0, lsl #4
 800285c:	6010      	str	r0, [r2, #0]
 800285e:	4770      	bx	lr
 8002860:	40021004 	.word	0x40021004

08002864 <rcc_clock_setup_in_hse_8mhz_out_72mhz>:
 8002864:	b508      	push	{r3, lr}
 8002866:	2004      	movs	r0, #4
 8002868:	f7ff ff82 	bl	8002770 <rcc_osc_on>
 800286c:	2004      	movs	r0, #4
 800286e:	f7ff ff77 	bl	8002760 <rcc_wait_for_osc_ready>
 8002872:	2000      	movs	r0, #0
 8002874:	f7ff ffa6 	bl	80027c4 <rcc_set_sysclk_source>
 8002878:	2003      	movs	r0, #3
 800287a:	f7ff ff79 	bl	8002770 <rcc_osc_on>
 800287e:	2003      	movs	r0, #3
 8002880:	f7ff ff6e 	bl	8002760 <rcc_wait_for_osc_ready>
 8002884:	2001      	movs	r0, #1
 8002886:	f7ff ff9d 	bl	80027c4 <rcc_set_sysclk_source>
 800288a:	2000      	movs	r0, #0
 800288c:	f7ff ffe0 	bl	8002850 <rcc_set_hpre>
 8002890:	2003      	movs	r0, #3
 8002892:	f7ff ffbf 	bl	8002814 <rcc_set_adcpre>
 8002896:	2004      	movs	r0, #4
 8002898:	f7ff ffd0 	bl	800283c <rcc_set_ppre1>
 800289c:	2000      	movs	r0, #0
 800289e:	f7ff ffc3 	bl	8002828 <rcc_set_ppre2>
 80028a2:	2002      	movs	r0, #2
 80028a4:	f000 f8ee 	bl	8002a84 <flash_set_ws>
 80028a8:	2007      	movs	r0, #7
 80028aa:	f7ff ff95 	bl	80027d8 <rcc_set_pll_multiplication_factor>
 80028ae:	2001      	movs	r0, #1
 80028b0:	f7ff ff9c 	bl	80027ec <rcc_set_pll_source>
 80028b4:	2000      	movs	r0, #0
 80028b6:	f7ff ffa3 	bl	8002800 <rcc_set_pllxtpre>
 80028ba:	f7ff ff1b 	bl	80026f4 <rcc_osc_on.part.1>
 80028be:	2000      	movs	r0, #0
 80028c0:	f7ff ff4e 	bl	8002760 <rcc_wait_for_osc_ready>
 80028c4:	2002      	movs	r0, #2
 80028c6:	f7ff ff7d 	bl	80027c4 <rcc_set_sysclk_source>
 80028ca:	4b04      	ldr	r3, [pc, #16]	; (80028dc <rcc_clock_setup_in_hse_8mhz_out_72mhz+0x78>)
 80028cc:	4a04      	ldr	r2, [pc, #16]	; (80028e0 <rcc_clock_setup_in_hse_8mhz_out_72mhz+0x7c>)
 80028ce:	4905      	ldr	r1, [pc, #20]	; (80028e4 <rcc_clock_setup_in_hse_8mhz_out_72mhz+0x80>)
 80028d0:	6013      	str	r3, [r2, #0]
 80028d2:	4a05      	ldr	r2, [pc, #20]	; (80028e8 <rcc_clock_setup_in_hse_8mhz_out_72mhz+0x84>)
 80028d4:	6011      	str	r1, [r2, #0]
 80028d6:	4a05      	ldr	r2, [pc, #20]	; (80028ec <rcc_clock_setup_in_hse_8mhz_out_72mhz+0x88>)
 80028d8:	6013      	str	r3, [r2, #0]
 80028da:	bd08      	pop	{r3, pc}
 80028dc:	044aa200 	.word	0x044aa200
 80028e0:	20000000 	.word	0x20000000
 80028e4:	02255100 	.word	0x02255100
 80028e8:	20000004 	.word	0x20000004
 80028ec:	20000008 	.word	0x20000008

080028f0 <rcc_periph_clock_enable>:
 80028f0:	0943      	lsrs	r3, r0, #5
 80028f2:	f000 021f 	and.w	r2, r0, #31
 80028f6:	2001      	movs	r0, #1
 80028f8:	f103 4380 	add.w	r3, r3, #1073741824	; 0x40000000
 80028fc:	f503 3304 	add.w	r3, r3, #135168	; 0x21000
 8002900:	6819      	ldr	r1, [r3, #0]
 8002902:	4090      	lsls	r0, r2
 8002904:	4308      	orrs	r0, r1
 8002906:	6018      	str	r0, [r3, #0]
 8002908:	4770      	bx	lr

0800290a <timer_enable_irq>:
 800290a:	68c3      	ldr	r3, [r0, #12]
 800290c:	4319      	orrs	r1, r3
 800290e:	60c1      	str	r1, [r0, #12]
 8002910:	4770      	bx	lr

08002912 <timer_clear_flag>:
 8002912:	43c9      	mvns	r1, r1
 8002914:	6101      	str	r1, [r0, #16]
 8002916:	4770      	bx	lr

08002918 <timer_set_mode>:
 8002918:	b510      	push	{r4, lr}
 800291a:	6804      	ldr	r4, [r0, #0]
 800291c:	4313      	orrs	r3, r2
 800291e:	f424 745c 	bic.w	r4, r4, #880	; 0x370
 8002922:	430b      	orrs	r3, r1
 8002924:	4323      	orrs	r3, r4
 8002926:	6003      	str	r3, [r0, #0]
 8002928:	bd10      	pop	{r4, pc}

0800292a <timer_enable_counter>:
 800292a:	6803      	ldr	r3, [r0, #0]
 800292c:	f043 0301 	orr.w	r3, r3, #1
 8002930:	6003      	str	r3, [r0, #0]
 8002932:	4770      	bx	lr

08002934 <timer_set_prescaler>:
 8002934:	6281      	str	r1, [r0, #40]	; 0x28
 8002936:	4770      	bx	lr

08002938 <timer_set_period>:
 8002938:	62c1      	str	r1, [r0, #44]	; 0x2c
 800293a:	4770      	bx	lr

0800293c <timer_set_oc_value>:
 800293c:	2906      	cmp	r1, #6
 800293e:	d80c      	bhi.n	800295a <timer_set_oc_value+0x1e>
 8002940:	e8df f001 	tbb	[pc, r1]
 8002944:	0b060b04 	.word	0x0b060b04
 8002948:	0b08      	.short	0x0b08
 800294a:	0a          	.byte	0x0a
 800294b:	00          	.byte	0x00
 800294c:	6342      	str	r2, [r0, #52]	; 0x34
 800294e:	4770      	bx	lr
 8002950:	6382      	str	r2, [r0, #56]	; 0x38
 8002952:	4770      	bx	lr
 8002954:	63c2      	str	r2, [r0, #60]	; 0x3c
 8002956:	4770      	bx	lr
 8002958:	6402      	str	r2, [r0, #64]	; 0x40
 800295a:	4770      	bx	lr

0800295c <timer_set_counter>:
 800295c:	6241      	str	r1, [r0, #36]	; 0x24
 800295e:	4770      	bx	lr

08002960 <blocking_handler>:
 8002960:	e7fe      	b.n	8002960 <blocking_handler>

08002962 <null_handler>:
 8002962:	4770      	bx	lr

08002964 <reset_handler>:
 8002964:	b538      	push	{r3, r4, r5, lr}
 8002966:	4a18      	ldr	r2, [pc, #96]	; (80029c8 <reset_handler+0x64>)
 8002968:	4b18      	ldr	r3, [pc, #96]	; (80029cc <reset_handler+0x68>)
 800296a:	4919      	ldr	r1, [pc, #100]	; (80029d0 <reset_handler+0x6c>)
 800296c:	428b      	cmp	r3, r1
 800296e:	d317      	bcc.n	80029a0 <reset_handler+0x3c>
 8002970:	2100      	movs	r1, #0
 8002972:	4a18      	ldr	r2, [pc, #96]	; (80029d4 <reset_handler+0x70>)
 8002974:	4293      	cmp	r3, r2
 8002976:	d318      	bcc.n	80029aa <reset_handler+0x46>
 8002978:	4a17      	ldr	r2, [pc, #92]	; (80029d8 <reset_handler+0x74>)
 800297a:	4c18      	ldr	r4, [pc, #96]	; (80029dc <reset_handler+0x78>)
 800297c:	6813      	ldr	r3, [r2, #0]
 800297e:	4d18      	ldr	r5, [pc, #96]	; (80029e0 <reset_handler+0x7c>)
 8002980:	f443 7300 	orr.w	r3, r3, #512	; 0x200
 8002984:	6013      	str	r3, [r2, #0]
 8002986:	42ac      	cmp	r4, r5
 8002988:	d312      	bcc.n	80029b0 <reset_handler+0x4c>
 800298a:	4c16      	ldr	r4, [pc, #88]	; (80029e4 <reset_handler+0x80>)
 800298c:	4d16      	ldr	r5, [pc, #88]	; (80029e8 <reset_handler+0x84>)
 800298e:	42ac      	cmp	r4, r5
 8002990:	d312      	bcc.n	80029b8 <reset_handler+0x54>
 8002992:	f7fd fd21 	bl	80003d8 <main>
 8002996:	4c15      	ldr	r4, [pc, #84]	; (80029ec <reset_handler+0x88>)
 8002998:	4d15      	ldr	r5, [pc, #84]	; (80029f0 <reset_handler+0x8c>)
 800299a:	42ac      	cmp	r4, r5
 800299c:	d310      	bcc.n	80029c0 <reset_handler+0x5c>
 800299e:	bd38      	pop	{r3, r4, r5, pc}
 80029a0:	f852 0b04 	ldr.w	r0, [r2], #4
 80029a4:	f843 0b04 	str.w	r0, [r3], #4
 80029a8:	e7e0      	b.n	800296c <reset_handler+0x8>
 80029aa:	f843 1b04 	str.w	r1, [r3], #4
 80029ae:	e7e1      	b.n	8002974 <reset_handler+0x10>
 80029b0:	f854 3b04 	ldr.w	r3, [r4], #4
 80029b4:	4798      	blx	r3
 80029b6:	e7e6      	b.n	8002986 <reset_handler+0x22>
 80029b8:	f854 3b04 	ldr.w	r3, [r4], #4
 80029bc:	4798      	blx	r3
 80029be:	e7e6      	b.n	800298e <reset_handler+0x2a>
 80029c0:	f854 3b04 	ldr.w	r3, [r4], #4
 80029c4:	4798      	blx	r3
 80029c6:	e7e8      	b.n	800299a <reset_handler+0x36>
 80029c8:	08002c70 	.word	0x08002c70
 80029cc:	20000000 	.word	0x20000000
 80029d0:	2000000c 	.word	0x2000000c
 80029d4:	20000014 	.word	0x20000014
 80029d8:	e000ed14 	.word	0xe000ed14
 80029dc:	08002c70 	.word	0x08002c70
 80029e0:	08002c70 	.word	0x08002c70
 80029e4:	08002c70 	.word	0x08002c70
 80029e8:	08002c70 	.word	0x08002c70
 80029ec:	08002c70 	.word	0x08002c70
 80029f0:	08002c70 	.word	0x08002c70

080029f4 <systick_set_reload>:
 80029f4:	4b02      	ldr	r3, [pc, #8]	; (8002a00 <systick_set_reload+0xc>)
 80029f6:	f020 407f 	bic.w	r0, r0, #4278190080	; 0xff000000
 80029fa:	6018      	str	r0, [r3, #0]
 80029fc:	4770      	bx	lr
 80029fe:	bf00      	nop
 8002a00:	e000e014 	.word	0xe000e014

08002a04 <systick_set_clocksource>:
 8002a04:	4a04      	ldr	r2, [pc, #16]	; (8002a18 <systick_set_clocksource+0x14>)
 8002a06:	f000 0004 	and.w	r0, r0, #4
 8002a0a:	6813      	ldr	r3, [r2, #0]
 8002a0c:	f023 0304 	bic.w	r3, r3, #4
 8002a10:	4303      	orrs	r3, r0
 8002a12:	6013      	str	r3, [r2, #0]
 8002a14:	4770      	bx	lr
 8002a16:	bf00      	nop
 8002a18:	e000e010 	.word	0xe000e010

08002a1c <systick_interrupt_enable>:
 8002a1c:	4a02      	ldr	r2, [pc, #8]	; (8002a28 <systick_interrupt_enable+0xc>)
 8002a1e:	6813      	ldr	r3, [r2, #0]
 8002a20:	f043 0302 	orr.w	r3, r3, #2
 8002a24:	6013      	str	r3, [r2, #0]
 8002a26:	4770      	bx	lr
 8002a28:	e000e010 	.word	0xe000e010

08002a2c <systick_counter_enable>:
 8002a2c:	4a02      	ldr	r2, [pc, #8]	; (8002a38 <systick_counter_enable+0xc>)
 8002a2e:	6813      	ldr	r3, [r2, #0]
 8002a30:	f043 0301 	orr.w	r3, r3, #1
 8002a34:	6013      	str	r3, [r2, #0]
 8002a36:	4770      	bx	lr
 8002a38:	e000e010 	.word	0xe000e010

08002a3c <systick_clear>:
 8002a3c:	2200      	movs	r2, #0
 8002a3e:	4b01      	ldr	r3, [pc, #4]	; (8002a44 <systick_clear+0x8>)
 8002a40:	601a      	str	r2, [r3, #0]
 8002a42:	4770      	bx	lr
 8002a44:	e000e018 	.word	0xe000e018

08002a48 <nvic_enable_irq>:
 8002a48:	2201      	movs	r2, #1
 8002a4a:	0943      	lsrs	r3, r0, #5
 8002a4c:	009b      	lsls	r3, r3, #2
 8002a4e:	f103 4360 	add.w	r3, r3, #3758096384	; 0xe0000000
 8002a52:	f000 001f 	and.w	r0, r0, #31
 8002a56:	f503 4361 	add.w	r3, r3, #57600	; 0xe100
 8002a5a:	fa02 f000 	lsl.w	r0, r2, r0
 8002a5e:	6018      	str	r0, [r3, #0]
 8002a60:	4770      	bx	lr
	...

08002a64 <nvic_set_priority>:
 8002a64:	2843      	cmp	r0, #67	; 0x43
 8002a66:	bf93      	iteet	ls
 8002a68:	f100 4060 	addls.w	r0, r0, #3758096384	; 0xe0000000
 8002a6c:	4b04      	ldrhi	r3, [pc, #16]	; (8002a80 <nvic_set_priority+0x1c>)
 8002a6e:	f000 000f 	andhi.w	r0, r0, #15
 8002a72:	f500 4064 	addls.w	r0, r0, #58368	; 0xe400
 8002a76:	bf8c      	ite	hi
 8002a78:	54c1      	strbhi	r1, [r0, r3]
 8002a7a:	7001      	strbls	r1, [r0, #0]
 8002a7c:	4770      	bx	lr
 8002a7e:	bf00      	nop
 8002a80:	e000ed14 	.word	0xe000ed14

08002a84 <flash_set_ws>:
 8002a84:	4a03      	ldr	r2, [pc, #12]	; (8002a94 <flash_set_ws+0x10>)
 8002a86:	6813      	ldr	r3, [r2, #0]
 8002a88:	f023 0307 	bic.w	r3, r3, #7
 8002a8c:	4318      	orrs	r0, r3
 8002a8e:	6010      	str	r0, [r2, #0]
 8002a90:	4770      	bx	lr
 8002a92:	bf00      	nop
 8002a94:	40022000 	.word	0x40022000

08002a98 <npio2_hw>:
 8002a98:	3ff921fb 400921fb 4012d97c 401921fb     .!.?.!.@|..@.!.@
 8002aa8:	401f6a7a 4022d97c 4025fdbb 402921fb     zj.@|."@..%@.!)@
 8002ab8:	402c463a 402f6a7a 4031475c 4032d97c     :F,@zj/@\G1@|.2@
 8002ac8:	40346b9c 4035fdbb 40378fdb 403921fb     .k4@..5@..7@.!9@
 8002ad8:	403ab41b 403c463a 403dd85a 403f6a7a     ..:@:F<@Z.=@zj?@
 8002ae8:	40407e4c 4041475c 4042106c 4042d97c     L~@@\GA@l.B@|.B@
 8002af8:	4043a28c 40446b9c 404534ac 4045fdbb     ..C@.kD@.4E@..E@
 8002b08:	4046c6cb 40478fdb 404858eb 404921fb     ..F@..G@.XH@.!I@

08002b18 <two_over_pi>:
 8002b18:	00a2f983 006e4e44 001529fc 002757d1     ....DNn..)...W'.
 8002b28:	00f534dd 00c0db62 0095993c 00439041     .4..b...<...A.C.
 8002b38:	00fe5163 00abdebb 00c561b7 00246e3a     cQ.......a..:n$.
 8002b48:	00424dd2 00e00649 002eea09 00d1921c     .MB.I...........
 8002b58:	00fe1deb 001cb129 00a73ee8 008235f5     ....)....>...5..
 8002b68:	002ebb44 0084e99c 007026b4 005f7e41     D........&p.A~_.
 8002b78:	003991d6 00398353 0039f49c 00845f8b     ..9.S.9...9.._..
 8002b88:	00bdf928 003b1ff8 0097ffde 0005980f     (.....;.........
 8002b98:	00ef2f11 008b5a0a 006d1f6d 00367ecf     ./...Z..m.m..~6.
 8002ba8:	0027cb09 00b74f46 003f669e 005fea2d     ..'.FO...f?.-._.
 8002bb8:	007527ba 00c7ebe5 00f17b3d 000739f7     .'u.....={...9..
 8002bc8:	008a5292 00ea6bfb 005fb11f 008d5d08     .R...k...._..]..
 8002bd8:	00560330 0046fc7b 006babf0 00cfbc20     0.V.{.F...k. ...
 8002be8:	009af436 001da9e3 0091615e 00e61b08     6.......^a......
 8002bf8:	00659985 005f14a0 0068408d 00ffd880     ..e..._..@h.....
 8002c08:	004d7327 00310606 001556ca 0073a8c9     'sM...1..V....s.
 8002c18:	0060e27b 00c08c6b                       {.`.k...

08002c20 <PIo2>:
 8002c20:	40000000 3ff921fb 00000000 3e74442d     ...@.!.?....-Dt>
 8002c30:	80000000 3cf84698 60000000 3b78cc51     .....F.<...`Q.x;
 8002c40:	80000000 39f01b83 40000000 387a2520     .......9...@ %z8
 8002c50:	80000000 36e38222 00000000 3569f31d     ...."..6......i5

08002c60 <init_jk>:
 8002c60:	00000002 00000003 00000004 00000006     ................
