
./build/dac_tim.elf:     file format elf32-littlearm


Disassembly of section .text:

08000000 <vector_table>:
 8000000:	00 50 00 20 5d 2a 00 08 59 2a 00 08 57 2a 00 08     .P. ]*..Y*..W*..
 8000010:	57 2a 00 08 57 2a 00 08 57 2a 00 08 00 00 00 00     W*..W*..W*......
	...
 800002c:	59 2a 00 08 59 2a 00 08 00 00 00 00 59 2a 00 08     Y*..Y*......Y*..
 800003c:	a5 04 00 08 57 2a 00 08 57 2a 00 08 57 2a 00 08     ....W*..W*..W*..
 800004c:	57 2a 00 08 57 2a 00 08 57 2a 00 08 57 2a 00 08     W*..W*..W*..W*..
 800005c:	57 2a 00 08 57 2a 00 08 57 2a 00 08 57 2a 00 08     W*..W*..W*..W*..
 800006c:	57 2a 00 08 57 2a 00 08 57 2a 00 08 57 2a 00 08     W*..W*..W*..W*..
 800007c:	57 2a 00 08 57 2a 00 08 57 2a 00 08 57 2a 00 08     W*..W*..W*..W*..
 800008c:	57 2a 00 08 57 2a 00 08 57 2a 00 08 57 2a 00 08     W*..W*..W*..W*..
 800009c:	57 2a 00 08 57 2a 00 08 57 2a 00 08 57 2a 00 08     W*..W*..W*..W*..
 80000ac:	57 2a 00 08 51 01 00 08 57 2a 00 08 57 2a 00 08     W*..Q...W*..W*..
 80000bc:	57 2a 00 08 57 2a 00 08 57 2a 00 08 57 2a 00 08     W*..W*..W*..W*..
 80000cc:	57 2a 00 08 57 2a 00 08 57 2a 00 08 57 2a 00 08     W*..W*..W*..W*..
 80000dc:	57 2a 00 08 57 2a 00 08 57 2a 00 08 57 2a 00 08     W*..W*..W*..W*..
 80000ec:	57 2a 00 08 57 2a 00 08 57 2a 00 08 57 2a 00 08     W*..W*..W*..W*..
 80000fc:	57 2a 00 08 57 2a 00 08 57 2a 00 08 57 2a 00 08     W*..W*..W*..W*..
 800010c:	57 2a 00 08 57 2a 00 08 57 2a 00 08 57 2a 00 08     W*..W*..W*..W*..
 800011c:	57 2a 00 08 57 2a 00 08 57 2a 00 08 57 2a 00 08     W*..W*..W*..W*..
 800012c:	57 2a 00 08 57 2a 00 08 57 2a 00 08 57 2a 00 08     W*..W*..W*..W*..
 800013c:	57 2a 00 08 57 2a 00 08 57 2a 00 08 57 2a 00 08     W*..W*..W*..W*..
 800014c:	57 2a 00 08                                         W*..

08000150 <tim2_isr>:
void tim4_setup(void);
uint8_t floatToChar(float);
float calculaIncremento(uint16_t,uint8_t);

void tim2_isr(void)
{
 8000150:	b508      	push	{r3, lr}
	//gpio_toggle(GPIOC, GPIO13); /* LED on/off. */
	flag_amostra = 1; //Indica que é o momento de amostrar
 8000152:	4b07      	ldr	r3, [pc, #28]	; (8000170 <tim2_isr+0x20>)
 8000154:	2201      	movs	r2, #1
 8000156:	601a      	str	r2, [r3, #0]
	/* Manutenção do interrupt */
	timer_clear_flag(TIM2,TIM_SR_CC1IF); /* Clear interrrupt flag. */
 8000158:	2102      	movs	r1, #2
 800015a:	f04f 4080 	mov.w	r0, #1073741824	; 0x40000000
 800015e:	f002 fb68 	bl	8002832 <timer_clear_flag>
	timer_set_counter(TIM2, 0); /* Set counter back to the beginning */
 8000162:	2100      	movs	r1, #0
 8000164:	f04f 4080 	mov.w	r0, #1073741824	; 0x40000000
 8000168:	f002 fc73 	bl	8002a52 <timer_set_counter>
}
 800016c:	bd08      	pop	{r3, pc}
 800016e:	bf00      	nop
 8000170:	2000000c 	.word	0x2000000c

08000174 <gpio_setup>:


void gpio_setup(void) {
 8000174:	b510      	push	{r4, lr}

	/* Enable clock. */
	rcc_periph_clock_enable(RCC_GPIOA);
 8000176:	f240 3002 	movw	r0, #770	; 0x302
 800017a:	f002 fb49 	bl	8002810 <rcc_periph_clock_enable>
	rcc_periph_clock_enable(RCC_GPIOB);
 800017e:	f240 3003 	movw	r0, #771	; 0x303
 8000182:	f002 fb45 	bl	8002810 <rcc_periph_clock_enable>
	rcc_periph_clock_enable(RCC_GPIOC);
 8000186:	f44f 7041 	mov.w	r0, #772	; 0x304
 800018a:	f002 fb41 	bl	8002810 <rcc_periph_clock_enable>
	/* Set GPIO13 (in GPIO port C) to 'output push-pull'. */
	gpio_set_mode(GPIOC,GPIO_MODE_OUTPUT_2_MHZ,
 800018e:	4c0e      	ldr	r4, [pc, #56]	; (80001c8 <gpio_setup+0x54>)
 8000190:	f44f 5300 	mov.w	r3, #8192	; 0x2000
 8000194:	2200      	movs	r2, #0
 8000196:	2102      	movs	r1, #2
 8000198:	4620      	mov	r0, r4
 800019a:	f002 f9fd 	bl	8002598 <gpio_set_mode>
		      GPIO_CNF_OUTPUT_PUSHPULL,GPIO13);
	gpio_set(GPIOC,GPIO13);
 800019e:	f44f 5100 	mov.w	r1, #8192	; 0x2000
 80001a2:	4620      	mov	r0, r4
 80001a4:	f002 fa27 	bl	80025f6 <gpio_set>


    /***************  Portas dos PWM *******************/

	/* Set GPIOB (in GPIO port B) to 'output alternate function'. */
	gpio_set_mode(GPIOB,GPIO_MODE_OUTPUT_50_MHZ,
 80001a8:	f5a4 6480 	sub.w	r4, r4, #1024	; 0x400
 80001ac:	2340      	movs	r3, #64	; 0x40
 80001ae:	2202      	movs	r2, #2
 80001b0:	2103      	movs	r1, #3
 80001b2:	4620      	mov	r0, r4
 80001b4:	f002 f9f0 	bl	8002598 <gpio_set_mode>
		      GPIO_CNF_OUTPUT_ALTFN_PUSHPULL,GPIO6);
	
	gpio_set_mode(GPIOB,GPIO_MODE_OUTPUT_50_MHZ,
 80001b8:	2380      	movs	r3, #128	; 0x80
 80001ba:	2202      	movs	r2, #2
 80001bc:	2103      	movs	r1, #3
 80001be:	4620      	mov	r0, r4
 80001c0:	f002 f9ea 	bl	8002598 <gpio_set_mode>
		      GPIO_CNF_OUTPUT_ALTFN_PUSHPULL,GPIO7);

}
 80001c4:	bd10      	pop	{r4, pc}
 80001c6:	bf00      	nop
 80001c8:	40011000 	.word	0x40011000

080001cc <tim2_setup>:
void tim2_setup(void){
 80001cc:	b508      	push	{r3, lr}
	
	//Configurado para 50kHz de frequência de atualização - 20us de taxa de amostragem	

	rcc_periph_clock_enable(RCC_TIM2);
 80001ce:	f44f 7060 	mov.w	r0, #896	; 0x380
 80001d2:	f002 fb1d 	bl	8002810 <rcc_periph_clock_enable>
	timer_set_mode(TIM2, TIM_CR1_CKD_CK_INT, TIM_CR1_CMS_EDGE, TIM_CR1_DIR_UP);
 80001d6:	2300      	movs	r3, #0
 80001d8:	461a      	mov	r2, r3
 80001da:	4619      	mov	r1, r3
 80001dc:	f04f 4080 	mov.w	r0, #1073741824	; 0x40000000
 80001e0:	f002 fb2a 	bl	8002838 <timer_set_mode>
	timer_set_prescaler(TIM2, 72000000/500000); // frequencia do tick é o denominador
 80001e4:	2190      	movs	r1, #144	; 0x90
 80001e6:	f04f 4080 	mov.w	r0, #1073741824	; 0x40000000
 80001ea:	f002 fb33 	bl	8002854 <timer_set_prescaler>
	timer_set_period(TIM2, 10); // quantos ticks dão um período
 80001ee:	210a      	movs	r1, #10
 80001f0:	f04f 4080 	mov.w	r0, #1073741824	; 0x40000000
 80001f4:	f002 fb30 	bl	8002858 <timer_set_period>
	timer_set_oc_value(TIM2, TIM_OC1, 10); //contagem até o período p/ trigar o interrupt
 80001f8:	220a      	movs	r2, #10
 80001fa:	2100      	movs	r1, #0
 80001fc:	f04f 4080 	mov.w	r0, #1073741824	; 0x40000000
 8000200:	f002 fc17 	bl	8002a32 <timer_set_oc_value>
	timer_enable_irq(TIM2, TIM_DIER_CC1IE);
 8000204:	2102      	movs	r1, #2
 8000206:	f04f 4080 	mov.w	r0, #1073741824	; 0x40000000
 800020a:	f002 fb0e 	bl	800282a <timer_enable_irq>

//NVIC
	
	nvic_enable_irq(NVIC_TIM2_IRQ);
 800020e:	201c      	movs	r0, #28
 8000210:	f002 fc96 	bl	8002b40 <nvic_enable_irq>
	nvic_set_priority(NVIC_TIM2_IRQ,1);
 8000214:	2101      	movs	r1, #1
 8000216:	201c      	movs	r0, #28
 8000218:	f002 fca0 	bl	8002b5c <nvic_set_priority>

	timer_enable_counter(TIM2);	
 800021c:	f04f 4080 	mov.w	r0, #1073741824	; 0x40000000
 8000220:	f002 fb13 	bl	800284a <timer_enable_counter>
}
 8000224:	bd08      	pop	{r3, pc}
	...

08000228 <tim4_setup>:


void tim4_setup(void){ //Timer do PWM
 8000228:	b510      	push	{r4, lr}

	rcc_periph_clock_enable(RCC_TIM4);
 800022a:	f240 3082 	movw	r0, #898	; 0x382
 800022e:	f002 faef 	bl	8002810 <rcc_periph_clock_enable>

	timer_set_mode(TIM4, TIM_CR1_CKD_CK_INT, TIM_CR1_CMS_EDGE, TIM_CR1_DIR_UP);
 8000232:	4c17      	ldr	r4, [pc, #92]	; (8000290 <tim4_setup+0x68>)
 8000234:	2300      	movs	r3, #0
 8000236:	461a      	mov	r2, r3
 8000238:	4619      	mov	r1, r3
 800023a:	4620      	mov	r0, r4
 800023c:	f002 fafc 	bl	8002838 <timer_set_mode>
	timer_set_prescaler(TIM4, 72000000/(18900000)); // frequencia do tick é o denominador
 8000240:	2103      	movs	r1, #3
 8000242:	4620      	mov	r0, r4
 8000244:	f002 fb06 	bl	8002854 <timer_set_prescaler>
	timer_set_period(TIM4, 126); // quantos ticks dão um período
 8000248:	217e      	movs	r1, #126	; 0x7e
 800024a:	4620      	mov	r0, r4
 800024c:	f002 fb04 	bl	8002858 <timer_set_period>

	timer_set_oc_mode(TIM4,TIM_OC1,TIM_OCM_PWM1); 
 8000250:	2206      	movs	r2, #6
 8000252:	2100      	movs	r1, #0
 8000254:	4620      	mov	r0, r4
 8000256:	f002 fb01 	bl	800285c <timer_set_oc_mode>
	timer_enable_oc_output(TIM4,TIM_OC1);
 800025a:	2100      	movs	r1, #0
 800025c:	4620      	mov	r0, r4
 800025e:	f002 fbc3 	bl	80029e8 <timer_enable_oc_output>

	timer_set_oc_mode(TIM4,TIM_OC2,TIM_OCM_PWM2); 
 8000262:	2207      	movs	r2, #7
 8000264:	2102      	movs	r1, #2
 8000266:	4620      	mov	r0, r4
 8000268:	f002 faf8 	bl	800285c <timer_set_oc_mode>
	timer_enable_oc_output(TIM4,TIM_OC2);
 800026c:	2102      	movs	r1, #2
 800026e:	4620      	mov	r0, r4
 8000270:	f002 fbba 	bl	80029e8 <timer_enable_oc_output>

	//Importante: se um PWM tem valor, o outro deve ser zero
	//Nessa configuração acredito que os dois tão desativados
	timer_set_oc_value(TIM4, TIM_OC1, 0); //PB6 
 8000274:	2200      	movs	r2, #0
 8000276:	4611      	mov	r1, r2
 8000278:	4620      	mov	r0, r4
 800027a:	f002 fbda 	bl	8002a32 <timer_set_oc_value>
	timer_set_oc_value(TIM4, TIM_OC2, 127); //PB7 (invertido)
 800027e:	227f      	movs	r2, #127	; 0x7f
 8000280:	2102      	movs	r1, #2
 8000282:	4620      	mov	r0, r4
 8000284:	f002 fbd5 	bl	8002a32 <timer_set_oc_value>
	timer_enable_counter(TIM4);	
 8000288:	4620      	mov	r0, r4
 800028a:	f002 fade 	bl	800284a <timer_enable_counter>
}
 800028e:	bd10      	pop	{r4, pc}
 8000290:	40000800 	.word	0x40000800

08000294 <floatToChar>:

uint8_t floatToChar(float sinFloat)
{
 8000294:	b508      	push	{r3, lr}
	//sinFloat entra aqui entre -1 e 1 e sai entre 0 e 255
	uint8_t out = (uint8_t)(255*(sinFloat+1)/2);
 8000296:	f04f 517e 	mov.w	r1, #1065353216	; 0x3f800000
 800029a:	f001 fe8f 	bl	8001fbc <__addsf3>
 800029e:	4905      	ldr	r1, [pc, #20]	; (80002b4 <floatToChar+0x20>)
 80002a0:	f001 ff94 	bl	80021cc <__aeabi_fmul>
 80002a4:	f04f 517c 	mov.w	r1, #1056964608	; 0x3f000000
 80002a8:	f001 ff90 	bl	80021cc <__aeabi_fmul>
 80002ac:	f002 f954 	bl	8002558 <__aeabi_f2uiz>
	return out;
}
 80002b0:	b2c0      	uxtb	r0, r0
 80002b2:	bd08      	pop	{r3, pc}
 80002b4:	437f0000 	.word	0x437f0000

080002b8 <main>:
	return 1000000/(pontos*freq); // Em us
}


int main(void)
{
 80002b8:	e92d 4ff0 	stmdb	sp!, {r4, r5, r6, r7, r8, r9, sl, fp, lr}
 80002bc:	b08b      	sub	sp, #44	; 0x2c
	rcc_clock_setup_in_hse_8mhz_out_72mhz(); 
 80002be:	f002 fa61 	bl	8002784 <rcc_clock_setup_in_hse_8mhz_out_72mhz>

	gpio_setup();
 80002c2:	f7ff ff57 	bl	8000174 <gpio_setup>
	tim2_setup();
 80002c6:	f7ff ff81 	bl	80001cc <tim2_setup>
	tim4_setup();
 80002ca:	f7ff ffad 	bl	8000228 <tim4_setup>
	time_init(); //Pra usar a biblioteca de delays
 80002ce:	f000 f8d1 	bl	8000474 <time_init>
	delay_ms(20);
 80002d2:	2014      	movs	r0, #20
 80002d4:	f000 f8c4 	bl	8000460 <delay_ms>
	int dir = 1; //Direção de mudança da frequência


	int i; //Iterador para gerar o seno
	int cont = 0; //Contagem de pontos do seno_tabela considerados
	for (i=0;i<qtd_pontos;i++) //Gerando o seno - so precisa ocorrer uma vez
 80002d8:	f10d 0407 	add.w	r4, sp, #7
 80002dc:	f10d 0a27 	add.w	sl, sp, #39	; 0x27
	{
		seno_tabela[i] = floatToChar(sin(M_2PI*i/qtd_pontos));
 80002e0:	ab0a      	add	r3, sp, #40	; 0x28
 80002e2:	f1c3 0521 	rsb	r5, r3, #33	; 0x21
 80002e6:	f20f 1948 	addw	r9, pc, #328	; 0x148
 80002ea:	e9d9 8900 	ldrd	r8, r9, [r9]
 80002ee:	2600      	movs	r6, #0
 80002f0:	4f51      	ldr	r7, [pc, #324]	; (8000438 <main+0x180>)
 80002f2:	1928      	adds	r0, r5, r4
 80002f4:	f001 fcf2 	bl	8001cdc <__aeabi_i2d>
 80002f8:	4642      	mov	r2, r8
 80002fa:	464b      	mov	r3, r9
 80002fc:	f001 fa72 	bl	80017e4 <__aeabi_dmul>
 8000300:	4632      	mov	r2, r6
 8000302:	463b      	mov	r3, r7
 8000304:	f001 fa6e 	bl	80017e4 <__aeabi_dmul>
 8000308:	f000 f8d6 	bl	80004b8 <sin>
 800030c:	f001 fe00 	bl	8001f10 <__aeabi_d2f>
 8000310:	f7ff ffc0 	bl	8000294 <floatToChar>
 8000314:	f804 0f01 	strb.w	r0, [r4, #1]!
	for (i=0;i<qtd_pontos;i++) //Gerando o seno - so precisa ocorrer uma vez
 8000318:	4554      	cmp	r4, sl
 800031a:	d1ea      	bne.n	80002f2 <main+0x3a>
	}
	i = 0;


	gpio_clear(GPIOC,GPIO13);
 800031c:	f44f 5100 	mov.w	r1, #8192	; 0x2000
 8000320:	4846      	ldr	r0, [pc, #280]	; (800043c <main+0x184>)
 8000322:	f002 f96a 	bl	80025fa <gpio_clear>
	float t_us= 0; //Tempo atual em us
	float t_ms = 0; //Tempo atual em ms


	/* Começo do programa */
	delay_ms(10);
 8000326:	200a      	movs	r0, #10
 8000328:	f000 f89a 	bl	8000460 <delay_ms>
	float t_ms = 0; //Tempo atual em ms
 800032c:	2300      	movs	r3, #0
 800032e:	9300      	str	r3, [sp, #0]
	float t_us= 0; //Tempo atual em us
 8000330:	461e      	mov	r6, r3
	float T_incremento = calculaIncremento(freq_alvo,qtd_pontos);
 8000332:	f8df 910c 	ldr.w	r9, [pc, #268]	; 8000440 <main+0x188>
	uint16_t freq_alvo = freq_inicial;
 8000336:	f04f 081e 	mov.w	r8, #30
	int cont = 0; //Contagem de pontos do seno_tabela considerados
 800033a:	2700      	movs	r7, #0
	int dir = 1; //Direção de mudança da frequência
 800033c:	2301      	movs	r3, #1
 800033e:	9301      	str	r3, [sp, #4]
	while(1)
	{
		if (flag_amostra == 1) //Bateu o timer de amostra, atualizo o valor do seno
 8000340:	4d40      	ldr	r5, [pc, #256]	; (8000444 <main+0x18c>)
 8000342:	e025      	b.n	8000390 <main+0xd8>
				saida_char = seno_tabela[cont];
				//Atualização do PWM
				
				if (saida_char>127)
				{
					timer_set_oc_value(TIM4, TIM_OC1, saida_char-127); //PB6
 8000344:	f8df b100 	ldr.w	fp, [pc, #256]	; 8000448 <main+0x190>
 8000348:	f1aa 027f 	sub.w	r2, sl, #127	; 0x7f
 800034c:	2100      	movs	r1, #0
 800034e:	4658      	mov	r0, fp
 8000350:	f002 fb6f 	bl	8002a32 <timer_set_oc_value>
					timer_set_oc_value(TIM4, TIM_OC2, 127); //PB7
 8000354:	227f      	movs	r2, #127	; 0x7f
 8000356:	2102      	movs	r1, #2
 8000358:	4658      	mov	r0, fp
 800035a:	f002 fb6a 	bl	8002a32 <timer_set_oc_value>
 800035e:	e03d      	b.n	80003dc <main+0x124>
				{
					freq_alvo = freq_alvo + dir * f_incremento;
					if (freq_alvo>freq_final)
					{
						dir = -1;
						freq_alvo = freq_final;
 8000360:	f44f 787a 	mov.w	r8, #1000	; 0x3e8
						dir = -1;
 8000364:	f04f 33ff 	mov.w	r3, #4294967295	; 0xffffffff
 8000368:	9301      	str	r3, [sp, #4]
	return 1000000/(pontos*freq); // Em us
 800036a:	ea4f 1348 	mov.w	r3, r8, lsl #5
 800036e:	4837      	ldr	r0, [pc, #220]	; (800044c <main+0x194>)
 8000370:	fb90 f0f3 	sdiv	r0, r0, r3
 8000374:	f001 fed6 	bl	8002124 <__aeabi_i2f>
 8000378:	4681      	mov	r9, r0
						freq_alvo = freq_inicial;
					}
					//freq_alvo = 550; //debug

					T_incremento = calculaIncremento(freq_alvo,qtd_pontos);
					t_ms = 0;
 800037a:	2300      	movs	r3, #0
 800037c:	9300      	str	r3, [sp, #0]
				}
				t_us = 0;
 800037e:	461e      	mov	r6, r3
				cont = 0;
 8000380:	2700      	movs	r7, #0
				i = 0;
			}		

			gpio_toggle(GPIOC, GPIO13);
 8000382:	f44f 5100 	mov.w	r1, #8192	; 0x2000
 8000386:	482d      	ldr	r0, [pc, #180]	; (800043c <main+0x184>)
 8000388:	f002 f93a 	bl	8002600 <gpio_toggle>
			flag_amostra = 0; //Fim da amostragem
 800038c:	2300      	movs	r3, #0
 800038e:	602b      	str	r3, [r5, #0]
		if (flag_amostra == 1) //Bateu o timer de amostra, atualizo o valor do seno
 8000390:	682c      	ldr	r4, [r5, #0]
 8000392:	2c01      	cmp	r4, #1
 8000394:	d1fc      	bne.n	8000390 <main+0xd8>
			t_us = t_us+20; //Incremento de um tick em us
 8000396:	492e      	ldr	r1, [pc, #184]	; (8000450 <main+0x198>)
 8000398:	4630      	mov	r0, r6
 800039a:	f001 fe0f 	bl	8001fbc <__addsf3>
 800039e:	4606      	mov	r6, r0
			if (t_us>=cont*T_incremento) // Se for hora de atualizar o seno, procura novo valor. se nao repete o mesmo
 80003a0:	4638      	mov	r0, r7
 80003a2:	f001 febf 	bl	8002124 <__aeabi_i2f>
 80003a6:	4649      	mov	r1, r9
 80003a8:	f001 ff10 	bl	80021cc <__aeabi_fmul>
 80003ac:	4631      	mov	r1, r6
 80003ae:	f002 f8b5 	bl	800251c <__aeabi_fcmple>
 80003b2:	b1a0      	cbz	r0, 80003de <main+0x126>
				saida_char = seno_tabela[cont];
 80003b4:	ab0a      	add	r3, sp, #40	; 0x28
 80003b6:	443b      	add	r3, r7
 80003b8:	f813 ac20 	ldrb.w	sl, [r3, #-32]
				if (saida_char>127)
 80003bc:	f913 3c20 	ldrsb.w	r3, [r3, #-32]
 80003c0:	2b00      	cmp	r3, #0
 80003c2:	dbbf      	blt.n	8000344 <main+0x8c>
					timer_set_oc_value(TIM4, TIM_OC1, 0); //PB6
 80003c4:	f8df b080 	ldr.w	fp, [pc, #128]	; 8000448 <main+0x190>
 80003c8:	2200      	movs	r2, #0
 80003ca:	4611      	mov	r1, r2
 80003cc:	4658      	mov	r0, fp
 80003ce:	f002 fb30 	bl	8002a32 <timer_set_oc_value>
					timer_set_oc_value(TIM4, TIM_OC2, saida_char); //PB7
 80003d2:	4652      	mov	r2, sl
 80003d4:	2102      	movs	r1, #2
 80003d6:	4658      	mov	r0, fp
 80003d8:	f002 fb2b 	bl	8002a32 <timer_set_oc_value>
				cont++;
 80003dc:	3701      	adds	r7, #1
			if (cont==qtd_pontos) // Se o tempo atual for igual ao período, o seno se repete
 80003de:	2f20      	cmp	r7, #32
 80003e0:	d1cf      	bne.n	8000382 <main+0xca>
				t_ms = t_ms+qtd_pontos*T_incremento/1000; //Incremento o tempo atual em ms
 80003e2:	f04f 4184 	mov.w	r1, #1107296256	; 0x42000000
 80003e6:	4648      	mov	r0, r9
 80003e8:	f001 fef0 	bl	80021cc <__aeabi_fmul>
 80003ec:	4919      	ldr	r1, [pc, #100]	; (8000454 <main+0x19c>)
 80003ee:	f001 ffa1 	bl	8002334 <__aeabi_fdiv>
 80003f2:	4601      	mov	r1, r0
 80003f4:	9800      	ldr	r0, [sp, #0]
 80003f6:	f001 fde1 	bl	8001fbc <__addsf3>
 80003fa:	9000      	str	r0, [sp, #0]
				if (t_ms>=t_ms_att_f)
 80003fc:	4916      	ldr	r1, [pc, #88]	; (8000458 <main+0x1a0>)
 80003fe:	f002 f897 	bl	8002530 <__aeabi_fcmpge>
 8000402:	b188      	cbz	r0, 8000428 <main+0x170>
					freq_alvo = freq_alvo + dir * f_incremento;
 8000404:	9a01      	ldr	r2, [sp, #4]
 8000406:	eb02 03c2 	add.w	r3, r2, r2, lsl #3
 800040a:	eb02 0343 	add.w	r3, r2, r3, lsl #1
 800040e:	4498      	add	r8, r3
 8000410:	fa1f f888 	uxth.w	r8, r8
					if (freq_alvo>freq_final)
 8000414:	f5b8 7f7a 	cmp.w	r8, #1000	; 0x3e8
 8000418:	d8a2      	bhi.n	8000360 <main+0xa8>
					else if(freq_alvo<freq_inicial)
 800041a:	f1b8 0f1d 	cmp.w	r8, #29
 800041e:	d8a4      	bhi.n	800036a <main+0xb2>
						dir = 1;
 8000420:	9401      	str	r4, [sp, #4]
						freq_alvo = freq_inicial;
 8000422:	f04f 081e 	mov.w	r8, #30
 8000426:	e7a0      	b.n	800036a <main+0xb2>
				t_us = 0;
 8000428:	2600      	movs	r6, #0
				cont = 0;
 800042a:	2700      	movs	r7, #0
 800042c:	e7a9      	b.n	8000382 <main+0xca>
 800042e:	bf00      	nop
 8000430:	54442eea 	.word	0x54442eea
 8000434:	401921fb 	.word	0x401921fb
 8000438:	3fa00000 	.word	0x3fa00000
 800043c:	40011000 	.word	0x40011000
 8000440:	44822000 	.word	0x44822000
 8000444:	2000000c 	.word	0x2000000c
 8000448:	40000800 	.word	0x40000800
 800044c:	000f4240 	.word	0x000f4240
 8000450:	41a00000 	.word	0x41a00000
 8000454:	447a0000 	.word	0x447a0000
 8000458:	42c80000 	.word	0x42c80000

0800045c <sys_tick_handler_v>:
static void systick_config(uint32_t ticks);
void sys_tick_handler_v(void) __attribute__ ((weak, alias("__empty")));

static void __empty(void) {
	// Empty
}
 800045c:	4770      	bx	lr
	...

08000460 <delay_ms>:
void delay_ms(uint32_t time_ms);
void delay_us(uint32_t time_us);
void sys_tick_handler_v(void);

static inline uint32_t millis(void){
    return milliseconds;
 8000460:	4b03      	ldr	r3, [pc, #12]	; (8000470 <delay_ms+0x10>)
 8000462:	6819      	ldr	r1, [r3, #0]
 8000464:	461a      	mov	r2, r3
 8000466:	6813      	ldr	r3, [r2, #0]
//


void delay_ms(uint32_t time_ms){
	uint32_t currTime = millis();
	while((millis() - currTime) < time_ms);
 8000468:	1a5b      	subs	r3, r3, r1
 800046a:	4283      	cmp	r3, r0
 800046c:	d3fb      	bcc.n	8000466 <delay_ms+0x6>
}
 800046e:	4770      	bx	lr
 8000470:	20000010 	.word	0x20000010

08000474 <time_init>:
void delay_us(uint32_t time_us){
	uint32_t currTime = micros();
	while((micros() - currTime) < time_us);
}

void time_init(){
 8000474:	b510      	push	{r4, lr}
	systick_config(rcc_ahb_frequency/1000); 
 8000476:	4b09      	ldr	r3, [pc, #36]	; (800049c <time_init+0x28>)
 8000478:	681c      	ldr	r4, [r3, #0]
 800047a:	4b09      	ldr	r3, [pc, #36]	; (80004a0 <time_init+0x2c>)
 800047c:	fba3 3404 	umull	r3, r4, r3, r4
 8000480:	09a4      	lsrs	r4, r4, #6


static void systick_config(uint32_t ticks){

	/* 72MHz => 72000000 counts per second for systick clock*/
	systick_set_clocksource(STK_CSR_CLKSOURCE_AHB);
 8000482:	2004      	movs	r0, #4
 8000484:	f002 fb3a 	bl	8002afc <systick_set_clocksource>
	
	/* For 1 khz clock tick must count 72Mhz/1000Khz = 72000 Ticks */
	/* SysTick interrupt every N clock pulses: set reload to N-1 */
	systick_set_reload(ticks - 1); //1ms every interrupt
 8000488:	1e60      	subs	r0, r4, #1
 800048a:	f002 fb2f 	bl	8002aec <systick_set_reload>

	systick_interrupt_enable();
 800048e:	f002 fb41 	bl	8002b14 <systick_interrupt_enable>

	// Make sure timer isn't random
	systick_clear();
 8000492:	f002 fb4f 	bl	8002b34 <systick_clear>
	
	/* Start counting. */
	systick_counter_enable();
 8000496:	f002 fb45 	bl	8002b24 <systick_counter_enable>
}
 800049a:	bd10      	pop	{r4, pc}
 800049c:	20000000 	.word	0x20000000
 80004a0:	10624dd3 	.word	0x10624dd3

080004a4 <sys_tick_handler>:
void sys_tick_handler(void){
 80004a4:	b508      	push	{r3, lr}
    sys_tick_handler_v();
 80004a6:	f7ff ffd9 	bl	800045c <sys_tick_handler_v>
	milliseconds++;	
 80004aa:	4a02      	ldr	r2, [pc, #8]	; (80004b4 <sys_tick_handler+0x10>)
 80004ac:	6813      	ldr	r3, [r2, #0]
 80004ae:	3301      	adds	r3, #1
 80004b0:	6013      	str	r3, [r2, #0]
}
 80004b2:	bd08      	pop	{r3, pc}
 80004b4:	20000010 	.word	0x20000010

080004b8 <sin>:
 80004b8:	b5f0      	push	{r4, r5, r6, r7, lr}
 80004ba:	4d28      	ldr	r5, [pc, #160]	; (800055c <sin+0xa4>)
 80004bc:	f021 4300 	bic.w	r3, r1, #2147483648	; 0x80000000
 80004c0:	42ab      	cmp	r3, r5
 80004c2:	b087      	sub	sp, #28
 80004c4:	dd20      	ble.n	8000508 <sin+0x50>
 80004c6:	4d26      	ldr	r5, [pc, #152]	; (8000560 <sin+0xa8>)
 80004c8:	42ab      	cmp	r3, r5
 80004ca:	dd09      	ble.n	80004e0 <sin+0x28>
 80004cc:	4602      	mov	r2, r0
 80004ce:	460b      	mov	r3, r1
 80004d0:	f001 fab6 	bl	8001a40 <__aeabi_dsub>
 80004d4:	4602      	mov	r2, r0
 80004d6:	460b      	mov	r3, r1
 80004d8:	4610      	mov	r0, r2
 80004da:	4619      	mov	r1, r3
 80004dc:	b007      	add	sp, #28
 80004de:	bdf0      	pop	{r4, r5, r6, r7, pc}
 80004e0:	aa02      	add	r2, sp, #8
 80004e2:	f000 f841 	bl	8000568 <__ieee754_rem_pio2>
 80004e6:	f000 0003 	and.w	r0, r0, #3
 80004ea:	2801      	cmp	r0, #1
 80004ec:	d018      	beq.n	8000520 <sin+0x68>
 80004ee:	2802      	cmp	r0, #2
 80004f0:	d028      	beq.n	8000544 <sin+0x8c>
 80004f2:	e9dd 2304 	ldrd	r2, r3, [sp, #16]
 80004f6:	b1e0      	cbz	r0, 8000532 <sin+0x7a>
 80004f8:	e9dd 0102 	ldrd	r0, r1, [sp, #8]
 80004fc:	f000 fa5c 	bl	80009b8 <__kernel_cos>
 8000500:	4602      	mov	r2, r0
 8000502:	f101 4300 	add.w	r3, r1, #2147483648	; 0x80000000
 8000506:	e7e7      	b.n	80004d8 <sin+0x20>
 8000508:	2400      	movs	r4, #0
 800050a:	2200      	movs	r2, #0
 800050c:	2300      	movs	r3, #0
 800050e:	9400      	str	r4, [sp, #0]
 8000510:	f000 ffaa 	bl	8001468 <__kernel_sin>
 8000514:	4602      	mov	r2, r0
 8000516:	460b      	mov	r3, r1
 8000518:	4610      	mov	r0, r2
 800051a:	4619      	mov	r1, r3
 800051c:	b007      	add	sp, #28
 800051e:	bdf0      	pop	{r4, r5, r6, r7, pc}
 8000520:	e9dd 2304 	ldrd	r2, r3, [sp, #16]
 8000524:	e9dd 0102 	ldrd	r0, r1, [sp, #8]
 8000528:	f000 fa46 	bl	80009b8 <__kernel_cos>
 800052c:	4602      	mov	r2, r0
 800052e:	460b      	mov	r3, r1
 8000530:	e7d2      	b.n	80004d8 <sin+0x20>
 8000532:	2401      	movs	r4, #1
 8000534:	e9dd 0102 	ldrd	r0, r1, [sp, #8]
 8000538:	9400      	str	r4, [sp, #0]
 800053a:	f000 ff95 	bl	8001468 <__kernel_sin>
 800053e:	4602      	mov	r2, r0
 8000540:	460b      	mov	r3, r1
 8000542:	e7c9      	b.n	80004d8 <sin+0x20>
 8000544:	2401      	movs	r4, #1
 8000546:	e9dd 2304 	ldrd	r2, r3, [sp, #16]
 800054a:	e9dd 0102 	ldrd	r0, r1, [sp, #8]
 800054e:	9400      	str	r4, [sp, #0]
 8000550:	f000 ff8a 	bl	8001468 <__kernel_sin>
 8000554:	4602      	mov	r2, r0
 8000556:	f101 4300 	add.w	r3, r1, #2147483648	; 0x80000000
 800055a:	e7bd      	b.n	80004d8 <sin+0x20>
 800055c:	3fe921fb 	.word	0x3fe921fb
 8000560:	7fefffff 	.word	0x7fefffff
 8000564:	00000000 	.word	0x00000000

08000568 <__ieee754_rem_pio2>:
 8000568:	e92d 4ff0 	stmdb	sp!, {r4, r5, r6, r7, r8, r9, sl, fp, lr}
 800056c:	4f9e      	ldr	r7, [pc, #632]	; (80007e8 <__ieee754_rem_pio2+0x280>)
 800056e:	f021 4500 	bic.w	r5, r1, #2147483648	; 0x80000000
 8000572:	42bd      	cmp	r5, r7
 8000574:	4614      	mov	r4, r2
 8000576:	4606      	mov	r6, r0
 8000578:	b08d      	sub	sp, #52	; 0x34
 800057a:	f340 8086 	ble.w	800068a <__ieee754_rem_pio2+0x122>
 800057e:	4a9b      	ldr	r2, [pc, #620]	; (80007ec <__ieee754_rem_pio2+0x284>)
 8000580:	468b      	mov	fp, r1
 8000582:	4295      	cmp	r5, r2
 8000584:	dc27      	bgt.n	80005d6 <__ieee754_rem_pio2+0x6e>
 8000586:	a38e      	add	r3, pc, #568	; (adr r3, 80007c0 <__ieee754_rem_pio2+0x258>)
 8000588:	e9d3 2300 	ldrd	r2, r3, [r3]
 800058c:	2900      	cmp	r1, #0
 800058e:	f340 81bc 	ble.w	800090a <__ieee754_rem_pio2+0x3a2>
 8000592:	f001 fa55 	bl	8001a40 <__aeabi_dsub>
 8000596:	4b96      	ldr	r3, [pc, #600]	; (80007f0 <__ieee754_rem_pio2+0x288>)
 8000598:	4606      	mov	r6, r0
 800059a:	429d      	cmp	r5, r3
 800059c:	460f      	mov	r7, r1
 800059e:	f000 808b 	beq.w	80006b8 <__ieee754_rem_pio2+0x150>
 80005a2:	a389      	add	r3, pc, #548	; (adr r3, 80007c8 <__ieee754_rem_pio2+0x260>)
 80005a4:	e9d3 2300 	ldrd	r2, r3, [r3]
 80005a8:	f001 fa4a 	bl	8001a40 <__aeabi_dsub>
 80005ac:	4602      	mov	r2, r0
 80005ae:	460b      	mov	r3, r1
 80005b0:	4630      	mov	r0, r6
 80005b2:	e9c4 2300 	strd	r2, r3, [r4]
 80005b6:	4639      	mov	r1, r7
 80005b8:	f001 fa42 	bl	8001a40 <__aeabi_dsub>
 80005bc:	a382      	add	r3, pc, #520	; (adr r3, 80007c8 <__ieee754_rem_pio2+0x260>)
 80005be:	e9d3 2300 	ldrd	r2, r3, [r3]
 80005c2:	f001 fa3d 	bl	8001a40 <__aeabi_dsub>
 80005c6:	f04f 0a01 	mov.w	sl, #1
 80005ca:	e9c4 0102 	strd	r0, r1, [r4, #8]
 80005ce:	4650      	mov	r0, sl
 80005d0:	b00d      	add	sp, #52	; 0x34
 80005d2:	e8bd 8ff0 	ldmia.w	sp!, {r4, r5, r6, r7, r8, r9, sl, fp, pc}
 80005d6:	4a87      	ldr	r2, [pc, #540]	; (80007f4 <__ieee754_rem_pio2+0x28c>)
 80005d8:	4295      	cmp	r5, r2
 80005da:	f340 808e 	ble.w	80006fa <__ieee754_rem_pio2+0x192>
 80005de:	4a86      	ldr	r2, [pc, #536]	; (80007f8 <__ieee754_rem_pio2+0x290>)
 80005e0:	4295      	cmp	r5, r2
 80005e2:	dc5e      	bgt.n	80006a2 <__ieee754_rem_pio2+0x13a>
 80005e4:	ea4f 5a25 	mov.w	sl, r5, asr #20
 80005e8:	f2aa 4a16 	subw	sl, sl, #1046	; 0x416
 80005ec:	eba5 510a 	sub.w	r1, r5, sl, lsl #20
 80005f0:	460f      	mov	r7, r1
 80005f2:	f001 fc65 	bl	8001ec0 <__aeabi_d2iz>
 80005f6:	f001 fb71 	bl	8001cdc <__aeabi_i2d>
 80005fa:	4680      	mov	r8, r0
 80005fc:	4689      	mov	r9, r1
 80005fe:	4630      	mov	r0, r6
 8000600:	4639      	mov	r1, r7
 8000602:	4642      	mov	r2, r8
 8000604:	464b      	mov	r3, r9
 8000606:	e9cd 8906 	strd	r8, r9, [sp, #24]
 800060a:	f001 fa19 	bl	8001a40 <__aeabi_dsub>
 800060e:	2200      	movs	r2, #0
 8000610:	4b7a      	ldr	r3, [pc, #488]	; (80007fc <__ieee754_rem_pio2+0x294>)
 8000612:	f001 f8e7 	bl	80017e4 <__aeabi_dmul>
 8000616:	460f      	mov	r7, r1
 8000618:	4606      	mov	r6, r0
 800061a:	f001 fc51 	bl	8001ec0 <__aeabi_d2iz>
 800061e:	4605      	mov	r5, r0
 8000620:	f001 fb5c 	bl	8001cdc <__aeabi_i2d>
 8000624:	4602      	mov	r2, r0
 8000626:	460b      	mov	r3, r1
 8000628:	4630      	mov	r0, r6
 800062a:	4639      	mov	r1, r7
 800062c:	e9cd 2308 	strd	r2, r3, [sp, #32]
 8000630:	f001 fa06 	bl	8001a40 <__aeabi_dsub>
 8000634:	2200      	movs	r2, #0
 8000636:	4b71      	ldr	r3, [pc, #452]	; (80007fc <__ieee754_rem_pio2+0x294>)
 8000638:	f001 f8d4 	bl	80017e4 <__aeabi_dmul>
 800063c:	4602      	mov	r2, r0
 800063e:	460b      	mov	r3, r1
 8000640:	e9cd 230a 	strd	r2, r3, [sp, #40]	; 0x28
 8000644:	2200      	movs	r2, #0
 8000646:	2300      	movs	r3, #0
 8000648:	f001 fc08 	bl	8001e5c <__aeabi_dcmpeq>
 800064c:	2800      	cmp	r0, #0
 800064e:	f000 815a 	beq.w	8000906 <__ieee754_rem_pio2+0x39e>
 8000652:	2d00      	cmp	r5, #0
 8000654:	bf0c      	ite	eq
 8000656:	2301      	moveq	r3, #1
 8000658:	2302      	movne	r3, #2
 800065a:	2002      	movs	r0, #2
 800065c:	4968      	ldr	r1, [pc, #416]	; (8000800 <__ieee754_rem_pio2+0x298>)
 800065e:	4652      	mov	r2, sl
 8000660:	e9cd 0100 	strd	r0, r1, [sp]
 8000664:	4621      	mov	r1, r4
 8000666:	a806      	add	r0, sp, #24
 8000668:	f000 face 	bl	8000c08 <__kernel_rem_pio2>
 800066c:	f1bb 0f00 	cmp.w	fp, #0
 8000670:	4682      	mov	sl, r0
 8000672:	daac      	bge.n	80005ce <__ieee754_rem_pio2+0x66>
 8000674:	6862      	ldr	r2, [r4, #4]
 8000676:	68e3      	ldr	r3, [r4, #12]
 8000678:	f102 4200 	add.w	r2, r2, #2147483648	; 0x80000000
 800067c:	f103 4300 	add.w	r3, r3, #2147483648	; 0x80000000
 8000680:	f1c0 0a00 	rsb	sl, r0, #0
 8000684:	6062      	str	r2, [r4, #4]
 8000686:	60e3      	str	r3, [r4, #12]
 8000688:	e7a1      	b.n	80005ce <__ieee754_rem_pio2+0x66>
 800068a:	f04f 0a00 	mov.w	sl, #0
 800068e:	2200      	movs	r2, #0
 8000690:	2300      	movs	r3, #0
 8000692:	e9c4 0100 	strd	r0, r1, [r4]
 8000696:	4650      	mov	r0, sl
 8000698:	e9c4 2302 	strd	r2, r3, [r4, #8]
 800069c:	b00d      	add	sp, #52	; 0x34
 800069e:	e8bd 8ff0 	ldmia.w	sp!, {r4, r5, r6, r7, r8, r9, sl, fp, pc}
 80006a2:	4602      	mov	r2, r0
 80006a4:	465b      	mov	r3, fp
 80006a6:	f001 f9cb 	bl	8001a40 <__aeabi_dsub>
 80006aa:	f04f 0a00 	mov.w	sl, #0
 80006ae:	e9c4 0102 	strd	r0, r1, [r4, #8]
 80006b2:	e9c4 0100 	strd	r0, r1, [r4]
 80006b6:	e78a      	b.n	80005ce <__ieee754_rem_pio2+0x66>
 80006b8:	a345      	add	r3, pc, #276	; (adr r3, 80007d0 <__ieee754_rem_pio2+0x268>)
 80006ba:	e9d3 2300 	ldrd	r2, r3, [r3]
 80006be:	f001 f9bf 	bl	8001a40 <__aeabi_dsub>
 80006c2:	a345      	add	r3, pc, #276	; (adr r3, 80007d8 <__ieee754_rem_pio2+0x270>)
 80006c4:	e9d3 2300 	ldrd	r2, r3, [r3]
 80006c8:	4606      	mov	r6, r0
 80006ca:	460f      	mov	r7, r1
 80006cc:	f001 f9b8 	bl	8001a40 <__aeabi_dsub>
 80006d0:	4602      	mov	r2, r0
 80006d2:	460b      	mov	r3, r1
 80006d4:	4630      	mov	r0, r6
 80006d6:	e9c4 2300 	strd	r2, r3, [r4]
 80006da:	4639      	mov	r1, r7
 80006dc:	f001 f9b0 	bl	8001a40 <__aeabi_dsub>
 80006e0:	a33d      	add	r3, pc, #244	; (adr r3, 80007d8 <__ieee754_rem_pio2+0x270>)
 80006e2:	e9d3 2300 	ldrd	r2, r3, [r3]
 80006e6:	f001 f9ab 	bl	8001a40 <__aeabi_dsub>
 80006ea:	f04f 0a01 	mov.w	sl, #1
 80006ee:	e9c4 0102 	strd	r0, r1, [r4, #8]
 80006f2:	4650      	mov	r0, sl
 80006f4:	b00d      	add	sp, #52	; 0x34
 80006f6:	e8bd 8ff0 	ldmia.w	sp!, {r4, r5, r6, r7, r8, r9, sl, fp, pc}
 80006fa:	f000 ff77 	bl	80015ec <fabs>
 80006fe:	a338      	add	r3, pc, #224	; (adr r3, 80007e0 <__ieee754_rem_pio2+0x278>)
 8000700:	e9d3 2300 	ldrd	r2, r3, [r3]
 8000704:	4606      	mov	r6, r0
 8000706:	460f      	mov	r7, r1
 8000708:	f001 f86c 	bl	80017e4 <__aeabi_dmul>
 800070c:	2200      	movs	r2, #0
 800070e:	4b3d      	ldr	r3, [pc, #244]	; (8000804 <__ieee754_rem_pio2+0x29c>)
 8000710:	f001 f998 	bl	8001a44 <__adddf3>
 8000714:	f001 fbd4 	bl	8001ec0 <__aeabi_d2iz>
 8000718:	4682      	mov	sl, r0
 800071a:	f001 fadf 	bl	8001cdc <__aeabi_i2d>
 800071e:	a328      	add	r3, pc, #160	; (adr r3, 80007c0 <__ieee754_rem_pio2+0x258>)
 8000720:	e9d3 2300 	ldrd	r2, r3, [r3]
 8000724:	4680      	mov	r8, r0
 8000726:	4689      	mov	r9, r1
 8000728:	e9cd 8904 	strd	r8, r9, [sp, #16]
 800072c:	f001 f85a 	bl	80017e4 <__aeabi_dmul>
 8000730:	4602      	mov	r2, r0
 8000732:	460b      	mov	r3, r1
 8000734:	4630      	mov	r0, r6
 8000736:	4639      	mov	r1, r7
 8000738:	f001 f982 	bl	8001a40 <__aeabi_dsub>
 800073c:	a322      	add	r3, pc, #136	; (adr r3, 80007c8 <__ieee754_rem_pio2+0x260>)
 800073e:	e9d3 2300 	ldrd	r2, r3, [r3]
 8000742:	4606      	mov	r6, r0
 8000744:	460f      	mov	r7, r1
 8000746:	4640      	mov	r0, r8
 8000748:	4649      	mov	r1, r9
 800074a:	46b0      	mov	r8, r6
 800074c:	46b9      	mov	r9, r7
 800074e:	e9cd 8902 	strd	r8, r9, [sp, #8]
 8000752:	f001 f847 	bl	80017e4 <__aeabi_dmul>
 8000756:	f1ba 0f1f 	cmp.w	sl, #31
 800075a:	4606      	mov	r6, r0
 800075c:	460f      	mov	r7, r1
 800075e:	4602      	mov	r2, r0
 8000760:	460b      	mov	r3, r1
 8000762:	dc53      	bgt.n	800080c <__ieee754_rem_pio2+0x2a4>
 8000764:	4640      	mov	r0, r8
 8000766:	4649      	mov	r1, r9
 8000768:	f001 f96a 	bl	8001a40 <__aeabi_dsub>
 800076c:	4b26      	ldr	r3, [pc, #152]	; (8000808 <__ieee754_rem_pio2+0x2a0>)
 800076e:	f10a 32ff 	add.w	r2, sl, #4294967295	; 0xffffffff
 8000772:	f853 3022 	ldr.w	r3, [r3, r2, lsl #2]
 8000776:	4681      	mov	r9, r0
 8000778:	42ab      	cmp	r3, r5
 800077a:	4688      	mov	r8, r1
 800077c:	d04c      	beq.n	8000818 <__ieee754_rem_pio2+0x2b0>
 800077e:	e9dd 0102 	ldrd	r0, r1, [sp, #8]
 8000782:	464a      	mov	r2, r9
 8000784:	4643      	mov	r3, r8
 8000786:	e9c4 2300 	strd	r2, r3, [r4]
 800078a:	f001 f959 	bl	8001a40 <__aeabi_dsub>
 800078e:	4632      	mov	r2, r6
 8000790:	463b      	mov	r3, r7
 8000792:	f001 f955 	bl	8001a40 <__aeabi_dsub>
 8000796:	4602      	mov	r2, r0
 8000798:	460b      	mov	r3, r1
 800079a:	f1bb 0f00 	cmp.w	fp, #0
 800079e:	4605      	mov	r5, r0
 80007a0:	e9c4 2302 	strd	r2, r3, [r4, #8]
 80007a4:	f6bf af13 	bge.w	80005ce <__ieee754_rem_pio2+0x66>
 80007a8:	f108 4300 	add.w	r3, r8, #2147483648	; 0x80000000
 80007ac:	f101 4100 	add.w	r1, r1, #2147483648	; 0x80000000
 80007b0:	e9c4 9300 	strd	r9, r3, [r4]
 80007b4:	e9c4 5102 	strd	r5, r1, [r4, #8]
 80007b8:	f1ca 0a00 	rsb	sl, sl, #0
 80007bc:	e707      	b.n	80005ce <__ieee754_rem_pio2+0x66>
 80007be:	bf00      	nop
 80007c0:	54400000 	.word	0x54400000
 80007c4:	3ff921fb 	.word	0x3ff921fb
 80007c8:	1a626331 	.word	0x1a626331
 80007cc:	3dd0b461 	.word	0x3dd0b461
 80007d0:	1a600000 	.word	0x1a600000
 80007d4:	3dd0b461 	.word	0x3dd0b461
 80007d8:	2e037073 	.word	0x2e037073
 80007dc:	3ba3198a 	.word	0x3ba3198a
 80007e0:	6dc9c883 	.word	0x6dc9c883
 80007e4:	3fe45f30 	.word	0x3fe45f30
 80007e8:	3fe921fb 	.word	0x3fe921fb
 80007ec:	4002d97b 	.word	0x4002d97b
 80007f0:	3ff921fb 	.word	0x3ff921fb
 80007f4:	413921fb 	.word	0x413921fb
 80007f8:	7fefffff 	.word	0x7fefffff
 80007fc:	41700000 	.word	0x41700000
 8000800:	08002c10 	.word	0x08002c10
 8000804:	3fe00000 	.word	0x3fe00000
 8000808:	08002b90 	.word	0x08002b90
 800080c:	e9dd 0102 	ldrd	r0, r1, [sp, #8]
 8000810:	f001 f916 	bl	8001a40 <__aeabi_dsub>
 8000814:	4681      	mov	r9, r0
 8000816:	4688      	mov	r8, r1
 8000818:	f3c8 530a 	ubfx	r3, r8, #20, #11
 800081c:	ebc3 5315 	rsb	r3, r3, r5, lsr #20
 8000820:	2b10      	cmp	r3, #16
 8000822:	ea4f 5525 	mov.w	r5, r5, asr #20
 8000826:	ddaa      	ble.n	800077e <__ieee754_rem_pio2+0x216>
 8000828:	a357      	add	r3, pc, #348	; (adr r3, 8000988 <__ieee754_rem_pio2+0x420>)
 800082a:	e9d3 2300 	ldrd	r2, r3, [r3]
 800082e:	e9dd 0104 	ldrd	r0, r1, [sp, #16]
 8000832:	f000 ffd7 	bl	80017e4 <__aeabi_dmul>
 8000836:	4606      	mov	r6, r0
 8000838:	460f      	mov	r7, r1
 800083a:	e9dd 0102 	ldrd	r0, r1, [sp, #8]
 800083e:	4632      	mov	r2, r6
 8000840:	463b      	mov	r3, r7
 8000842:	f001 f8fd 	bl	8001a40 <__aeabi_dsub>
 8000846:	4680      	mov	r8, r0
 8000848:	4689      	mov	r9, r1
 800084a:	e9dd 0102 	ldrd	r0, r1, [sp, #8]
 800084e:	4642      	mov	r2, r8
 8000850:	464b      	mov	r3, r9
 8000852:	f001 f8f5 	bl	8001a40 <__aeabi_dsub>
 8000856:	4632      	mov	r2, r6
 8000858:	463b      	mov	r3, r7
 800085a:	f001 f8f1 	bl	8001a40 <__aeabi_dsub>
 800085e:	a34c      	add	r3, pc, #304	; (adr r3, 8000990 <__ieee754_rem_pio2+0x428>)
 8000860:	e9d3 2300 	ldrd	r2, r3, [r3]
 8000864:	4606      	mov	r6, r0
 8000866:	460f      	mov	r7, r1
 8000868:	e9dd 0104 	ldrd	r0, r1, [sp, #16]
 800086c:	f000 ffba 	bl	80017e4 <__aeabi_dmul>
 8000870:	4632      	mov	r2, r6
 8000872:	463b      	mov	r3, r7
 8000874:	f001 f8e4 	bl	8001a40 <__aeabi_dsub>
 8000878:	4606      	mov	r6, r0
 800087a:	460f      	mov	r7, r1
 800087c:	4640      	mov	r0, r8
 800087e:	4649      	mov	r1, r9
 8000880:	463b      	mov	r3, r7
 8000882:	4632      	mov	r2, r6
 8000884:	e9cd 8902 	strd	r8, r9, [sp, #8]
 8000888:	f001 f8da 	bl	8001a40 <__aeabi_dsub>
 800088c:	f3c1 530a 	ubfx	r3, r1, #20, #11
 8000890:	1aed      	subs	r5, r5, r3
 8000892:	2d31      	cmp	r5, #49	; 0x31
 8000894:	4688      	mov	r8, r1
 8000896:	4681      	mov	r9, r0
 8000898:	f77f af71 	ble.w	800077e <__ieee754_rem_pio2+0x216>
 800089c:	a33e      	add	r3, pc, #248	; (adr r3, 8000998 <__ieee754_rem_pio2+0x430>)
 800089e:	e9d3 2300 	ldrd	r2, r3, [r3]
 80008a2:	e9dd 0104 	ldrd	r0, r1, [sp, #16]
 80008a6:	f000 ff9d 	bl	80017e4 <__aeabi_dmul>
 80008aa:	e9dd 5602 	ldrd	r5, r6, [sp, #8]
 80008ae:	4680      	mov	r8, r0
 80008b0:	4689      	mov	r9, r1
 80008b2:	4642      	mov	r2, r8
 80008b4:	464b      	mov	r3, r9
 80008b6:	4631      	mov	r1, r6
 80008b8:	4628      	mov	r0, r5
 80008ba:	f001 f8c1 	bl	8001a40 <__aeabi_dsub>
 80008be:	4602      	mov	r2, r0
 80008c0:	460b      	mov	r3, r1
 80008c2:	4628      	mov	r0, r5
 80008c4:	4631      	mov	r1, r6
 80008c6:	e9cd 2302 	strd	r2, r3, [sp, #8]
 80008ca:	f001 f8b9 	bl	8001a40 <__aeabi_dsub>
 80008ce:	4642      	mov	r2, r8
 80008d0:	464b      	mov	r3, r9
 80008d2:	f001 f8b5 	bl	8001a40 <__aeabi_dsub>
 80008d6:	a332      	add	r3, pc, #200	; (adr r3, 80009a0 <__ieee754_rem_pio2+0x438>)
 80008d8:	e9d3 2300 	ldrd	r2, r3, [r3]
 80008dc:	4606      	mov	r6, r0
 80008de:	460f      	mov	r7, r1
 80008e0:	e9dd 0104 	ldrd	r0, r1, [sp, #16]
 80008e4:	f000 ff7e 	bl	80017e4 <__aeabi_dmul>
 80008e8:	4632      	mov	r2, r6
 80008ea:	463b      	mov	r3, r7
 80008ec:	f001 f8a8 	bl	8001a40 <__aeabi_dsub>
 80008f0:	4606      	mov	r6, r0
 80008f2:	460f      	mov	r7, r1
 80008f4:	e9dd 0102 	ldrd	r0, r1, [sp, #8]
 80008f8:	4632      	mov	r2, r6
 80008fa:	463b      	mov	r3, r7
 80008fc:	f001 f8a0 	bl	8001a40 <__aeabi_dsub>
 8000900:	4681      	mov	r9, r0
 8000902:	4688      	mov	r8, r1
 8000904:	e73b      	b.n	800077e <__ieee754_rem_pio2+0x216>
 8000906:	2303      	movs	r3, #3
 8000908:	e6a7      	b.n	800065a <__ieee754_rem_pio2+0xf2>
 800090a:	f001 f89b 	bl	8001a44 <__adddf3>
 800090e:	4b28      	ldr	r3, [pc, #160]	; (80009b0 <__ieee754_rem_pio2+0x448>)
 8000910:	4606      	mov	r6, r0
 8000912:	429d      	cmp	r5, r3
 8000914:	460f      	mov	r7, r1
 8000916:	d016      	beq.n	8000946 <__ieee754_rem_pio2+0x3de>
 8000918:	a323      	add	r3, pc, #140	; (adr r3, 80009a8 <__ieee754_rem_pio2+0x440>)
 800091a:	e9d3 2300 	ldrd	r2, r3, [r3]
 800091e:	f001 f891 	bl	8001a44 <__adddf3>
 8000922:	4602      	mov	r2, r0
 8000924:	460b      	mov	r3, r1
 8000926:	4630      	mov	r0, r6
 8000928:	e9c4 2300 	strd	r2, r3, [r4]
 800092c:	4639      	mov	r1, r7
 800092e:	f001 f887 	bl	8001a40 <__aeabi_dsub>
 8000932:	a31d      	add	r3, pc, #116	; (adr r3, 80009a8 <__ieee754_rem_pio2+0x440>)
 8000934:	e9d3 2300 	ldrd	r2, r3, [r3]
 8000938:	f001 f884 	bl	8001a44 <__adddf3>
 800093c:	f04f 3aff 	mov.w	sl, #4294967295	; 0xffffffff
 8000940:	e9c4 0102 	strd	r0, r1, [r4, #8]
 8000944:	e643      	b.n	80005ce <__ieee754_rem_pio2+0x66>
 8000946:	a310      	add	r3, pc, #64	; (adr r3, 8000988 <__ieee754_rem_pio2+0x420>)
 8000948:	e9d3 2300 	ldrd	r2, r3, [r3]
 800094c:	f001 f87a 	bl	8001a44 <__adddf3>
 8000950:	a30f      	add	r3, pc, #60	; (adr r3, 8000990 <__ieee754_rem_pio2+0x428>)
 8000952:	e9d3 2300 	ldrd	r2, r3, [r3]
 8000956:	4606      	mov	r6, r0
 8000958:	460f      	mov	r7, r1
 800095a:	f001 f873 	bl	8001a44 <__adddf3>
 800095e:	4602      	mov	r2, r0
 8000960:	460b      	mov	r3, r1
 8000962:	4630      	mov	r0, r6
 8000964:	e9c4 2300 	strd	r2, r3, [r4]
 8000968:	4639      	mov	r1, r7
 800096a:	f001 f869 	bl	8001a40 <__aeabi_dsub>
 800096e:	a308      	add	r3, pc, #32	; (adr r3, 8000990 <__ieee754_rem_pio2+0x428>)
 8000970:	e9d3 2300 	ldrd	r2, r3, [r3]
 8000974:	f001 f866 	bl	8001a44 <__adddf3>
 8000978:	f04f 3aff 	mov.w	sl, #4294967295	; 0xffffffff
 800097c:	e9c4 0102 	strd	r0, r1, [r4, #8]
 8000980:	e625      	b.n	80005ce <__ieee754_rem_pio2+0x66>
 8000982:	bf00      	nop
 8000984:	f3af 8000 	nop.w
 8000988:	1a600000 	.word	0x1a600000
 800098c:	3dd0b461 	.word	0x3dd0b461
 8000990:	2e037073 	.word	0x2e037073
 8000994:	3ba3198a 	.word	0x3ba3198a
 8000998:	2e000000 	.word	0x2e000000
 800099c:	3ba3198a 	.word	0x3ba3198a
 80009a0:	252049c1 	.word	0x252049c1
 80009a4:	397b839a 	.word	0x397b839a
 80009a8:	1a626331 	.word	0x1a626331
 80009ac:	3dd0b461 	.word	0x3dd0b461
 80009b0:	3ff921fb 	.word	0x3ff921fb
 80009b4:	00000000 	.word	0x00000000

080009b8 <__kernel_cos>:
 80009b8:	e92d 4df0 	stmdb	sp!, {r4, r5, r6, r7, r8, sl, fp, lr}
 80009bc:	f021 4700 	bic.w	r7, r1, #2147483648	; 0x80000000
 80009c0:	b086      	sub	sp, #24
 80009c2:	f1b7 5f79 	cmp.w	r7, #1044381696	; 0x3e400000
 80009c6:	4688      	mov	r8, r1
 80009c8:	4606      	mov	r6, r0
 80009ca:	e9cd 2300 	strd	r2, r3, [sp]
 80009ce:	da6c      	bge.n	8000aaa <__kernel_cos+0xf2>
 80009d0:	f001 fa76 	bl	8001ec0 <__aeabi_d2iz>
 80009d4:	2800      	cmp	r0, #0
 80009d6:	f000 80ed 	beq.w	8000bb4 <__kernel_cos+0x1fc>
 80009da:	4632      	mov	r2, r6
 80009dc:	4643      	mov	r3, r8
 80009de:	4630      	mov	r0, r6
 80009e0:	4641      	mov	r1, r8
 80009e2:	f000 feff 	bl	80017e4 <__aeabi_dmul>
 80009e6:	a376      	add	r3, pc, #472	; (adr r3, 8000bc0 <__kernel_cos+0x208>)
 80009e8:	e9d3 2300 	ldrd	r2, r3, [r3]
 80009ec:	4604      	mov	r4, r0
 80009ee:	460d      	mov	r5, r1
 80009f0:	f000 fef8 	bl	80017e4 <__aeabi_dmul>
 80009f4:	a374      	add	r3, pc, #464	; (adr r3, 8000bc8 <__kernel_cos+0x210>)
 80009f6:	e9d3 2300 	ldrd	r2, r3, [r3]
 80009fa:	f001 f823 	bl	8001a44 <__adddf3>
 80009fe:	4622      	mov	r2, r4
 8000a00:	462b      	mov	r3, r5
 8000a02:	f000 feef 	bl	80017e4 <__aeabi_dmul>
 8000a06:	a372      	add	r3, pc, #456	; (adr r3, 8000bd0 <__kernel_cos+0x218>)
 8000a08:	e9d3 2300 	ldrd	r2, r3, [r3]
 8000a0c:	f001 f818 	bl	8001a40 <__aeabi_dsub>
 8000a10:	4622      	mov	r2, r4
 8000a12:	462b      	mov	r3, r5
 8000a14:	f000 fee6 	bl	80017e4 <__aeabi_dmul>
 8000a18:	a36f      	add	r3, pc, #444	; (adr r3, 8000bd8 <__kernel_cos+0x220>)
 8000a1a:	e9d3 2300 	ldrd	r2, r3, [r3]
 8000a1e:	f001 f811 	bl	8001a44 <__adddf3>
 8000a22:	4622      	mov	r2, r4
 8000a24:	462b      	mov	r3, r5
 8000a26:	f000 fedd 	bl	80017e4 <__aeabi_dmul>
 8000a2a:	a36d      	add	r3, pc, #436	; (adr r3, 8000be0 <__kernel_cos+0x228>)
 8000a2c:	e9d3 2300 	ldrd	r2, r3, [r3]
 8000a30:	f001 f806 	bl	8001a40 <__aeabi_dsub>
 8000a34:	4622      	mov	r2, r4
 8000a36:	462b      	mov	r3, r5
 8000a38:	f000 fed4 	bl	80017e4 <__aeabi_dmul>
 8000a3c:	a36a      	add	r3, pc, #424	; (adr r3, 8000be8 <__kernel_cos+0x230>)
 8000a3e:	e9d3 2300 	ldrd	r2, r3, [r3]
 8000a42:	f000 ffff 	bl	8001a44 <__adddf3>
 8000a46:	4622      	mov	r2, r4
 8000a48:	462b      	mov	r3, r5
 8000a4a:	f000 fecb 	bl	80017e4 <__aeabi_dmul>
 8000a4e:	e9cd 0102 	strd	r0, r1, [sp, #8]
 8000a52:	2200      	movs	r2, #0
 8000a54:	4620      	mov	r0, r4
 8000a56:	4629      	mov	r1, r5
 8000a58:	4b65      	ldr	r3, [pc, #404]	; (8000bf0 <__kernel_cos+0x238>)
 8000a5a:	f000 fec3 	bl	80017e4 <__aeabi_dmul>
 8000a5e:	e9dd 2302 	ldrd	r2, r3, [sp, #8]
 8000a62:	4682      	mov	sl, r0
 8000a64:	468b      	mov	fp, r1
 8000a66:	4620      	mov	r0, r4
 8000a68:	4629      	mov	r1, r5
 8000a6a:	f000 febb 	bl	80017e4 <__aeabi_dmul>
 8000a6e:	4632      	mov	r2, r6
 8000a70:	460f      	mov	r7, r1
 8000a72:	4606      	mov	r6, r0
 8000a74:	4641      	mov	r1, r8
 8000a76:	4610      	mov	r0, r2
 8000a78:	e9dd 2300 	ldrd	r2, r3, [sp]
 8000a7c:	f000 feb2 	bl	80017e4 <__aeabi_dmul>
 8000a80:	4602      	mov	r2, r0
 8000a82:	460b      	mov	r3, r1
 8000a84:	4630      	mov	r0, r6
 8000a86:	4639      	mov	r1, r7
 8000a88:	f000 ffda 	bl	8001a40 <__aeabi_dsub>
 8000a8c:	4602      	mov	r2, r0
 8000a8e:	460b      	mov	r3, r1
 8000a90:	4650      	mov	r0, sl
 8000a92:	4659      	mov	r1, fp
 8000a94:	f000 ffd4 	bl	8001a40 <__aeabi_dsub>
 8000a98:	4602      	mov	r2, r0
 8000a9a:	460b      	mov	r3, r1
 8000a9c:	2000      	movs	r0, #0
 8000a9e:	4955      	ldr	r1, [pc, #340]	; (8000bf4 <__kernel_cos+0x23c>)
 8000aa0:	f000 ffce 	bl	8001a40 <__aeabi_dsub>
 8000aa4:	b006      	add	sp, #24
 8000aa6:	e8bd 8df0 	ldmia.w	sp!, {r4, r5, r6, r7, r8, sl, fp, pc}
 8000aaa:	4602      	mov	r2, r0
 8000aac:	460b      	mov	r3, r1
 8000aae:	f000 fe99 	bl	80017e4 <__aeabi_dmul>
 8000ab2:	a343      	add	r3, pc, #268	; (adr r3, 8000bc0 <__kernel_cos+0x208>)
 8000ab4:	e9d3 2300 	ldrd	r2, r3, [r3]
 8000ab8:	4604      	mov	r4, r0
 8000aba:	460d      	mov	r5, r1
 8000abc:	f000 fe92 	bl	80017e4 <__aeabi_dmul>
 8000ac0:	a341      	add	r3, pc, #260	; (adr r3, 8000bc8 <__kernel_cos+0x210>)
 8000ac2:	e9d3 2300 	ldrd	r2, r3, [r3]
 8000ac6:	f000 ffbd 	bl	8001a44 <__adddf3>
 8000aca:	4622      	mov	r2, r4
 8000acc:	462b      	mov	r3, r5
 8000ace:	f000 fe89 	bl	80017e4 <__aeabi_dmul>
 8000ad2:	a33f      	add	r3, pc, #252	; (adr r3, 8000bd0 <__kernel_cos+0x218>)
 8000ad4:	e9d3 2300 	ldrd	r2, r3, [r3]
 8000ad8:	f000 ffb2 	bl	8001a40 <__aeabi_dsub>
 8000adc:	4622      	mov	r2, r4
 8000ade:	462b      	mov	r3, r5
 8000ae0:	f000 fe80 	bl	80017e4 <__aeabi_dmul>
 8000ae4:	a33c      	add	r3, pc, #240	; (adr r3, 8000bd8 <__kernel_cos+0x220>)
 8000ae6:	e9d3 2300 	ldrd	r2, r3, [r3]
 8000aea:	f000 ffab 	bl	8001a44 <__adddf3>
 8000aee:	4622      	mov	r2, r4
 8000af0:	462b      	mov	r3, r5
 8000af2:	f000 fe77 	bl	80017e4 <__aeabi_dmul>
 8000af6:	a33a      	add	r3, pc, #232	; (adr r3, 8000be0 <__kernel_cos+0x228>)
 8000af8:	e9d3 2300 	ldrd	r2, r3, [r3]
 8000afc:	f000 ffa0 	bl	8001a40 <__aeabi_dsub>
 8000b00:	4622      	mov	r2, r4
 8000b02:	462b      	mov	r3, r5
 8000b04:	f000 fe6e 	bl	80017e4 <__aeabi_dmul>
 8000b08:	a337      	add	r3, pc, #220	; (adr r3, 8000be8 <__kernel_cos+0x230>)
 8000b0a:	e9d3 2300 	ldrd	r2, r3, [r3]
 8000b0e:	f000 ff99 	bl	8001a44 <__adddf3>
 8000b12:	462b      	mov	r3, r5
 8000b14:	4622      	mov	r2, r4
 8000b16:	f000 fe65 	bl	80017e4 <__aeabi_dmul>
 8000b1a:	4b37      	ldr	r3, [pc, #220]	; (8000bf8 <__kernel_cos+0x240>)
 8000b1c:	e9cd 0102 	strd	r0, r1, [sp, #8]
 8000b20:	429f      	cmp	r7, r3
 8000b22:	dd96      	ble.n	8000a52 <__kernel_cos+0x9a>
 8000b24:	4b35      	ldr	r3, [pc, #212]	; (8000bfc <__kernel_cos+0x244>)
 8000b26:	429f      	cmp	r7, r3
 8000b28:	dc3b      	bgt.n	8000ba2 <__kernel_cos+0x1ea>
 8000b2a:	f04f 0a00 	mov.w	sl, #0
 8000b2e:	f5a7 1b00 	sub.w	fp, r7, #2097152	; 0x200000
 8000b32:	2000      	movs	r0, #0
 8000b34:	4652      	mov	r2, sl
 8000b36:	465b      	mov	r3, fp
 8000b38:	492e      	ldr	r1, [pc, #184]	; (8000bf4 <__kernel_cos+0x23c>)
 8000b3a:	f000 ff81 	bl	8001a40 <__aeabi_dsub>
 8000b3e:	e9cd 0104 	strd	r0, r1, [sp, #16]
 8000b42:	2200      	movs	r2, #0
 8000b44:	4620      	mov	r0, r4
 8000b46:	4629      	mov	r1, r5
 8000b48:	4b29      	ldr	r3, [pc, #164]	; (8000bf0 <__kernel_cos+0x238>)
 8000b4a:	f000 fe4b 	bl	80017e4 <__aeabi_dmul>
 8000b4e:	4652      	mov	r2, sl
 8000b50:	465b      	mov	r3, fp
 8000b52:	f000 ff75 	bl	8001a40 <__aeabi_dsub>
 8000b56:	e9dd 2302 	ldrd	r2, r3, [sp, #8]
 8000b5a:	4682      	mov	sl, r0
 8000b5c:	468b      	mov	fp, r1
 8000b5e:	4620      	mov	r0, r4
 8000b60:	4629      	mov	r1, r5
 8000b62:	f000 fe3f 	bl	80017e4 <__aeabi_dmul>
 8000b66:	4632      	mov	r2, r6
 8000b68:	460f      	mov	r7, r1
 8000b6a:	4606      	mov	r6, r0
 8000b6c:	4641      	mov	r1, r8
 8000b6e:	4610      	mov	r0, r2
 8000b70:	e9dd 2300 	ldrd	r2, r3, [sp]
 8000b74:	f000 fe36 	bl	80017e4 <__aeabi_dmul>
 8000b78:	4602      	mov	r2, r0
 8000b7a:	460b      	mov	r3, r1
 8000b7c:	4630      	mov	r0, r6
 8000b7e:	4639      	mov	r1, r7
 8000b80:	f000 ff5e 	bl	8001a40 <__aeabi_dsub>
 8000b84:	4602      	mov	r2, r0
 8000b86:	460b      	mov	r3, r1
 8000b88:	4650      	mov	r0, sl
 8000b8a:	4659      	mov	r1, fp
 8000b8c:	f000 ff58 	bl	8001a40 <__aeabi_dsub>
 8000b90:	4602      	mov	r2, r0
 8000b92:	460b      	mov	r3, r1
 8000b94:	e9dd 0104 	ldrd	r0, r1, [sp, #16]
 8000b98:	f000 ff52 	bl	8001a40 <__aeabi_dsub>
 8000b9c:	b006      	add	sp, #24
 8000b9e:	e8bd 8df0 	ldmia.w	sp!, {r4, r5, r6, r7, r8, sl, fp, pc}
 8000ba2:	2200      	movs	r2, #0
 8000ba4:	4b16      	ldr	r3, [pc, #88]	; (8000c00 <__kernel_cos+0x248>)
 8000ba6:	f04f 0a00 	mov.w	sl, #0
 8000baa:	e9cd 2304 	strd	r2, r3, [sp, #16]
 8000bae:	f8df b054 	ldr.w	fp, [pc, #84]	; 8000c04 <__kernel_cos+0x24c>
 8000bb2:	e7c6      	b.n	8000b42 <__kernel_cos+0x18a>
 8000bb4:	2000      	movs	r0, #0
 8000bb6:	490f      	ldr	r1, [pc, #60]	; (8000bf4 <__kernel_cos+0x23c>)
 8000bb8:	b006      	add	sp, #24
 8000bba:	e8bd 8df0 	ldmia.w	sp!, {r4, r5, r6, r7, r8, sl, fp, pc}
 8000bbe:	bf00      	nop
 8000bc0:	be8838d4 	.word	0xbe8838d4
 8000bc4:	bda8fae9 	.word	0xbda8fae9
 8000bc8:	bdb4b1c4 	.word	0xbdb4b1c4
 8000bcc:	3e21ee9e 	.word	0x3e21ee9e
 8000bd0:	809c52ad 	.word	0x809c52ad
 8000bd4:	3e927e4f 	.word	0x3e927e4f
 8000bd8:	19cb1590 	.word	0x19cb1590
 8000bdc:	3efa01a0 	.word	0x3efa01a0
 8000be0:	16c15177 	.word	0x16c15177
 8000be4:	3f56c16c 	.word	0x3f56c16c
 8000be8:	5555554c 	.word	0x5555554c
 8000bec:	3fa55555 	.word	0x3fa55555
 8000bf0:	3fe00000 	.word	0x3fe00000
 8000bf4:	3ff00000 	.word	0x3ff00000
 8000bf8:	3fd33332 	.word	0x3fd33332
 8000bfc:	3fe90000 	.word	0x3fe90000
 8000c00:	3fe70000 	.word	0x3fe70000
 8000c04:	3fd20000 	.word	0x3fd20000

08000c08 <__kernel_rem_pio2>:
 8000c08:	e92d 4ff0 	stmdb	sp!, {r4, r5, r6, r7, r8, r9, sl, fp, lr}
 8000c0c:	461c      	mov	r4, r3
 8000c0e:	f5ad 7d19 	sub.w	sp, sp, #612	; 0x264
 8000c12:	910b      	str	r1, [sp, #44]	; 0x2c
 8000c14:	1e61      	subs	r1, r4, #1
 8000c16:	9308      	str	r3, [sp, #32]
 8000c18:	9103      	str	r1, [sp, #12]
 8000c1a:	4bb8      	ldr	r3, [pc, #736]	; (8000efc <__kernel_rem_pio2+0x2f4>)
 8000c1c:	99a2      	ldr	r1, [sp, #648]	; 0x288
 8000c1e:	f112 0f14 	cmn.w	r2, #20
 8000c22:	f853 3021 	ldr.w	r3, [r3, r1, lsl #2]
 8000c26:	4607      	mov	r7, r0
 8000c28:	9305      	str	r3, [sp, #20]
 8000c2a:	f2c0 834d 	blt.w	80012c8 <__kernel_rem_pio2+0x6c0>
 8000c2e:	49b4      	ldr	r1, [pc, #720]	; (8000f00 <__kernel_rem_pio2+0x2f8>)
 8000c30:	1ed3      	subs	r3, r2, #3
 8000c32:	fb81 0103 	smull	r0, r1, r1, r3
 8000c36:	17db      	asrs	r3, r3, #31
 8000c38:	ebc3 03a1 	rsb	r3, r3, r1, asr #2
 8000c3c:	9307      	str	r3, [sp, #28]
 8000c3e:	3301      	adds	r3, #1
 8000c40:	eba3 0383 	sub.w	r3, r3, r3, lsl #2
 8000c44:	00db      	lsls	r3, r3, #3
 8000c46:	18d3      	adds	r3, r2, r3
 8000c48:	9306      	str	r3, [sp, #24]
 8000c4a:	9a07      	ldr	r2, [sp, #28]
 8000c4c:	9b03      	ldr	r3, [sp, #12]
 8000c4e:	1ad6      	subs	r6, r2, r3
 8000c50:	9a05      	ldr	r2, [sp, #20]
 8000c52:	eb12 0903 	adds.w	r9, r2, r3
 8000c56:	d41b      	bmi.n	8000c90 <__kernel_rem_pio2+0x88>
 8000c58:	f109 0901 	add.w	r9, r9, #1
 8000c5c:	2400      	movs	r4, #0
 8000c5e:	2500      	movs	r5, #0
 8000c60:	f8dd a28c 	ldr.w	sl, [sp, #652]	; 0x28c
 8000c64:	44b1      	add	r9, r6
 8000c66:	f10d 0880 	add.w	r8, sp, #128	; 0x80
 8000c6a:	e008      	b.n	8000c7e <__kernel_rem_pio2+0x76>
 8000c6c:	f85a 0026 	ldr.w	r0, [sl, r6, lsl #2]
 8000c70:	f001 f834 	bl	8001cdc <__aeabi_i2d>
 8000c74:	3601      	adds	r6, #1
 8000c76:	454e      	cmp	r6, r9
 8000c78:	e8e8 0102 	strd	r0, r1, [r8], #8
 8000c7c:	d008      	beq.n	8000c90 <__kernel_rem_pio2+0x88>
 8000c7e:	2e00      	cmp	r6, #0
 8000c80:	daf4      	bge.n	8000c6c <__kernel_rem_pio2+0x64>
 8000c82:	4620      	mov	r0, r4
 8000c84:	4629      	mov	r1, r5
 8000c86:	3601      	adds	r6, #1
 8000c88:	454e      	cmp	r6, r9
 8000c8a:	e8e8 0102 	strd	r0, r1, [r8], #8
 8000c8e:	d1f6      	bne.n	8000c7e <__kernel_rem_pio2+0x76>
 8000c90:	9b05      	ldr	r3, [sp, #20]
 8000c92:	2b00      	cmp	r3, #0
 8000c94:	f1a7 0308 	sub.w	r3, r7, #8
 8000c98:	9304      	str	r3, [sp, #16]
 8000c9a:	f2c0 83c1 	blt.w	8001420 <__kernel_rem_pio2+0x818>
 8000c9e:	4619      	mov	r1, r3
 8000ca0:	9b08      	ldr	r3, [sp, #32]
 8000ca2:	f8dd 900c 	ldr.w	r9, [sp, #12]
 8000ca6:	00da      	lsls	r2, r3, #3
 8000ca8:	9202      	str	r2, [sp, #8]
 8000caa:	9a05      	ldr	r2, [sp, #20]
 8000cac:	eb01 08c3 	add.w	r8, r1, r3, lsl #3
 8000cb0:	a920      	add	r1, sp, #128	; 0x80
 8000cb2:	eb01 0ac3 	add.w	sl, r1, r3, lsl #3
 8000cb6:	18d3      	adds	r3, r2, r3
 8000cb8:	f50d 7be0 	add.w	fp, sp, #448	; 0x1c0
 8000cbc:	9301      	str	r3, [sp, #4]
 8000cbe:	9b03      	ldr	r3, [sp, #12]
 8000cc0:	2b00      	cmp	r3, #0
 8000cc2:	f2c0 81b3 	blt.w	800102c <__kernel_rem_pio2+0x424>
 8000cc6:	4657      	mov	r7, sl
 8000cc8:	2400      	movs	r4, #0
 8000cca:	2500      	movs	r5, #0
 8000ccc:	9e04      	ldr	r6, [sp, #16]
 8000cce:	e977 2302 	ldrd	r2, r3, [r7, #-8]!
 8000cd2:	e9f6 0102 	ldrd	r0, r1, [r6, #8]!
 8000cd6:	f000 fd85 	bl	80017e4 <__aeabi_dmul>
 8000cda:	4602      	mov	r2, r0
 8000cdc:	460b      	mov	r3, r1
 8000cde:	4620      	mov	r0, r4
 8000ce0:	4629      	mov	r1, r5
 8000ce2:	f000 feaf 	bl	8001a44 <__adddf3>
 8000ce6:	4546      	cmp	r6, r8
 8000ce8:	4604      	mov	r4, r0
 8000cea:	460d      	mov	r5, r1
 8000cec:	d1ef      	bne.n	8000cce <__kernel_rem_pio2+0xc6>
 8000cee:	9b01      	ldr	r3, [sp, #4]
 8000cf0:	f109 0901 	add.w	r9, r9, #1
 8000cf4:	4599      	cmp	r9, r3
 8000cf6:	e8eb 4502 	strd	r4, r5, [fp], #8
 8000cfa:	f10a 0a08 	add.w	sl, sl, #8
 8000cfe:	d1de      	bne.n	8000cbe <__kernel_rem_pio2+0xb6>
 8000d00:	9a05      	ldr	r2, [sp, #20]
 8000d02:	a90c      	add	r1, sp, #48	; 0x30
 8000d04:	eb01 0382 	add.w	r3, r1, r2, lsl #2
 8000d08:	9804      	ldr	r0, [sp, #16]
 8000d0a:	9902      	ldr	r1, [sp, #8]
 8000d0c:	3b08      	subs	r3, #8
 8000d0e:	4401      	add	r1, r0
 8000d10:	468b      	mov	fp, r1
 8000d12:	9309      	str	r3, [sp, #36]	; 0x24
 8000d14:	ab0b      	add	r3, sp, #44	; 0x2c
 8000d16:	eb03 0382 	add.w	r3, r3, r2, lsl #2
 8000d1a:	9201      	str	r2, [sp, #4]
 8000d1c:	930a      	str	r3, [sp, #40]	; 0x28
 8000d1e:	9a01      	ldr	r2, [sp, #4]
 8000d20:	a998      	add	r1, sp, #608	; 0x260
 8000d22:	eb01 03c2 	add.w	r3, r1, r2, lsl #3
 8000d26:	2a00      	cmp	r2, #0
 8000d28:	e953 4528 	ldrd	r4, r5, [r3, #-160]	; 0xa0
 8000d2c:	dd2a      	ble.n	8000d84 <__kernel_rem_pio2+0x17c>
 8000d2e:	f50d 7ae0 	add.w	sl, sp, #448	; 0x1c0
 8000d32:	f10d 0930 	add.w	r9, sp, #48	; 0x30
 8000d36:	eb0a 08c2 	add.w	r8, sl, r2, lsl #3
 8000d3a:	2200      	movs	r2, #0
 8000d3c:	4b71      	ldr	r3, [pc, #452]	; (8000f04 <__kernel_rem_pio2+0x2fc>)
 8000d3e:	4620      	mov	r0, r4
 8000d40:	4629      	mov	r1, r5
 8000d42:	f000 fd4f 	bl	80017e4 <__aeabi_dmul>
 8000d46:	f001 f8bb 	bl	8001ec0 <__aeabi_d2iz>
 8000d4a:	f000 ffc7 	bl	8001cdc <__aeabi_i2d>
 8000d4e:	2200      	movs	r2, #0
 8000d50:	4b6d      	ldr	r3, [pc, #436]	; (8000f08 <__kernel_rem_pio2+0x300>)
 8000d52:	4606      	mov	r6, r0
 8000d54:	460f      	mov	r7, r1
 8000d56:	f000 fd45 	bl	80017e4 <__aeabi_dmul>
 8000d5a:	4602      	mov	r2, r0
 8000d5c:	460b      	mov	r3, r1
 8000d5e:	4620      	mov	r0, r4
 8000d60:	4629      	mov	r1, r5
 8000d62:	f000 fe6d 	bl	8001a40 <__aeabi_dsub>
 8000d66:	f001 f8ab 	bl	8001ec0 <__aeabi_d2iz>
 8000d6a:	e978 2302 	ldrd	r2, r3, [r8, #-8]!
 8000d6e:	4604      	mov	r4, r0
 8000d70:	4639      	mov	r1, r7
 8000d72:	f849 4b04 	str.w	r4, [r9], #4
 8000d76:	4630      	mov	r0, r6
 8000d78:	f000 fe64 	bl	8001a44 <__adddf3>
 8000d7c:	45d0      	cmp	r8, sl
 8000d7e:	4604      	mov	r4, r0
 8000d80:	460d      	mov	r5, r1
 8000d82:	d1da      	bne.n	8000d3a <__kernel_rem_pio2+0x132>
 8000d84:	f8dd 9018 	ldr.w	r9, [sp, #24]
 8000d88:	4620      	mov	r0, r4
 8000d8a:	4629      	mov	r1, r5
 8000d8c:	464a      	mov	r2, r9
 8000d8e:	f000 fcaf 	bl	80016f0 <scalbn>
 8000d92:	2200      	movs	r2, #0
 8000d94:	f04f 537f 	mov.w	r3, #1069547520	; 0x3fc00000
 8000d98:	4604      	mov	r4, r0
 8000d9a:	460d      	mov	r5, r1
 8000d9c:	f000 fd22 	bl	80017e4 <__aeabi_dmul>
 8000da0:	f000 fc2a 	bl	80015f8 <floor>
 8000da4:	2200      	movs	r2, #0
 8000da6:	4b59      	ldr	r3, [pc, #356]	; (8000f0c <__kernel_rem_pio2+0x304>)
 8000da8:	f000 fd1c 	bl	80017e4 <__aeabi_dmul>
 8000dac:	4602      	mov	r2, r0
 8000dae:	460b      	mov	r3, r1
 8000db0:	4620      	mov	r0, r4
 8000db2:	4629      	mov	r1, r5
 8000db4:	f000 fe44 	bl	8001a40 <__aeabi_dsub>
 8000db8:	4604      	mov	r4, r0
 8000dba:	460d      	mov	r5, r1
 8000dbc:	f001 f880 	bl	8001ec0 <__aeabi_d2iz>
 8000dc0:	4680      	mov	r8, r0
 8000dc2:	f000 ff8b 	bl	8001cdc <__aeabi_i2d>
 8000dc6:	4602      	mov	r2, r0
 8000dc8:	460b      	mov	r3, r1
 8000dca:	4620      	mov	r0, r4
 8000dcc:	4629      	mov	r1, r5
 8000dce:	464c      	mov	r4, r9
 8000dd0:	f000 fe36 	bl	8001a40 <__aeabi_dsub>
 8000dd4:	2c00      	cmp	r4, #0
 8000dd6:	4606      	mov	r6, r0
 8000dd8:	460f      	mov	r7, r1
 8000dda:	f340 8099 	ble.w	8000f10 <__kernel_rem_pio2+0x308>
 8000dde:	9b01      	ldr	r3, [sp, #4]
 8000de0:	f1c9 0218 	rsb	r2, r9, #24
 8000de4:	1e58      	subs	r0, r3, #1
 8000de6:	ab0c      	add	r3, sp, #48	; 0x30
 8000de8:	f853 3020 	ldr.w	r3, [r3, r0, lsl #2]
 8000dec:	f1c9 0517 	rsb	r5, r9, #23
 8000df0:	fa43 f102 	asr.w	r1, r3, r2
 8000df4:	fa01 f202 	lsl.w	r2, r1, r2
 8000df8:	1a9b      	subs	r3, r3, r2
 8000dfa:	fa43 f505 	asr.w	r5, r3, r5
 8000dfe:	aa0c      	add	r2, sp, #48	; 0x30
 8000e00:	2d00      	cmp	r5, #0
 8000e02:	f842 3020 	str.w	r3, [r2, r0, lsl #2]
 8000e06:	4488      	add	r8, r1
 8000e08:	f300 808c 	bgt.w	8000f24 <__kernel_rem_pio2+0x31c>
 8000e0c:	2200      	movs	r2, #0
 8000e0e:	2300      	movs	r3, #0
 8000e10:	4630      	mov	r0, r6
 8000e12:	4639      	mov	r1, r7
 8000e14:	f001 f822 	bl	8001e5c <__aeabi_dcmpeq>
 8000e18:	2800      	cmp	r0, #0
 8000e1a:	f000 825f 	beq.w	80012dc <__kernel_rem_pio2+0x6d4>
 8000e1e:	9b01      	ldr	r3, [sp, #4]
 8000e20:	9a05      	ldr	r2, [sp, #20]
 8000e22:	f103 3aff 	add.w	sl, r3, #4294967295	; 0xffffffff
 8000e26:	4552      	cmp	r2, sl
 8000e28:	dc10      	bgt.n	8000e4c <__kernel_rem_pio2+0x244>
 8000e2a:	2200      	movs	r2, #0
 8000e2c:	f103 4380 	add.w	r3, r3, #1073741824	; 0x40000000
 8000e30:	3b01      	subs	r3, #1
 8000e32:	a90c      	add	r1, sp, #48	; 0x30
 8000e34:	980a      	ldr	r0, [sp, #40]	; 0x28
 8000e36:	eb01 0383 	add.w	r3, r1, r3, lsl #2
 8000e3a:	f853 1904 	ldr.w	r1, [r3], #-4
 8000e3e:	4283      	cmp	r3, r0
 8000e40:	ea42 0201 	orr.w	r2, r2, r1
 8000e44:	d1f9      	bne.n	8000e3a <__kernel_rem_pio2+0x232>
 8000e46:	2a00      	cmp	r2, #0
 8000e48:	f040 80f3 	bne.w	8001032 <__kernel_rem_pio2+0x42a>
 8000e4c:	9b05      	ldr	r3, [sp, #20]
 8000e4e:	aa0c      	add	r2, sp, #48	; 0x30
 8000e50:	3b01      	subs	r3, #1
 8000e52:	f852 3023 	ldr.w	r3, [r2, r3, lsl #2]
 8000e56:	2b00      	cmp	r3, #0
 8000e58:	f040 80e3 	bne.w	8001022 <__kernel_rem_pio2+0x41a>
 8000e5c:	2301      	movs	r3, #1
 8000e5e:	9a09      	ldr	r2, [sp, #36]	; 0x24
 8000e60:	f852 1904 	ldr.w	r1, [r2], #-4
 8000e64:	3301      	adds	r3, #1
 8000e66:	2900      	cmp	r1, #0
 8000e68:	d0fa      	beq.n	8000e60 <__kernel_rem_pio2+0x258>
 8000e6a:	9901      	ldr	r1, [sp, #4]
 8000e6c:	1c4a      	adds	r2, r1, #1
 8000e6e:	4691      	mov	r9, r2
 8000e70:	18cb      	adds	r3, r1, r3
 8000e72:	9302      	str	r3, [sp, #8]
 8000e74:	9b07      	ldr	r3, [sp, #28]
 8000e76:	9908      	ldr	r1, [sp, #32]
 8000e78:	eb02 0a03 	add.w	sl, r2, r3
 8000e7c:	9b01      	ldr	r3, [sp, #4]
 8000e7e:	f10a 4a80 	add.w	sl, sl, #1073741824	; 0x40000000
 8000e82:	440b      	add	r3, r1
 8000e84:	4698      	mov	r8, r3
 8000e86:	ab20      	add	r3, sp, #128	; 0x80
 8000e88:	eb03 08c8 	add.w	r8, r3, r8, lsl #3
 8000e8c:	9ba3      	ldr	r3, [sp, #652]	; 0x28c
 8000e8e:	f10a 3aff 	add.w	sl, sl, #4294967295	; 0xffffffff
 8000e92:	eb03 0a8a 	add.w	sl, r3, sl, lsl #2
 8000e96:	ab70      	add	r3, sp, #448	; 0x1c0
 8000e98:	eb03 03c2 	add.w	r3, r3, r2, lsl #3
 8000e9c:	9301      	str	r3, [sp, #4]
 8000e9e:	f85a 0f04 	ldr.w	r0, [sl, #4]!
 8000ea2:	f000 ff1b 	bl	8001cdc <__aeabi_i2d>
 8000ea6:	9b03      	ldr	r3, [sp, #12]
 8000ea8:	4647      	mov	r7, r8
 8000eaa:	2b00      	cmp	r3, #0
 8000eac:	e9c8 0100 	strd	r0, r1, [r8]
 8000eb0:	f108 0808 	add.w	r8, r8, #8
 8000eb4:	db1f      	blt.n	8000ef6 <__kernel_rem_pio2+0x2ee>
 8000eb6:	2400      	movs	r4, #0
 8000eb8:	2500      	movs	r5, #0
 8000eba:	9e04      	ldr	r6, [sp, #16]
 8000ebc:	3f08      	subs	r7, #8
 8000ebe:	e001      	b.n	8000ec4 <__kernel_rem_pio2+0x2bc>
 8000ec0:	e877 0102 	ldrd	r0, r1, [r7], #-8
 8000ec4:	e9f6 2302 	ldrd	r2, r3, [r6, #8]!
 8000ec8:	f000 fc8c 	bl	80017e4 <__aeabi_dmul>
 8000ecc:	4602      	mov	r2, r0
 8000ece:	460b      	mov	r3, r1
 8000ed0:	4620      	mov	r0, r4
 8000ed2:	4629      	mov	r1, r5
 8000ed4:	f000 fdb6 	bl	8001a44 <__adddf3>
 8000ed8:	455e      	cmp	r6, fp
 8000eda:	4604      	mov	r4, r0
 8000edc:	460d      	mov	r5, r1
 8000ede:	d1ef      	bne.n	8000ec0 <__kernel_rem_pio2+0x2b8>
 8000ee0:	9b01      	ldr	r3, [sp, #4]
 8000ee2:	f109 0901 	add.w	r9, r9, #1
 8000ee6:	e8e3 4502 	strd	r4, r5, [r3], #8
 8000eea:	9301      	str	r3, [sp, #4]
 8000eec:	9b02      	ldr	r3, [sp, #8]
 8000eee:	4599      	cmp	r9, r3
 8000ef0:	ddd5      	ble.n	8000e9e <__kernel_rem_pio2+0x296>
 8000ef2:	9301      	str	r3, [sp, #4]
 8000ef4:	e713      	b.n	8000d1e <__kernel_rem_pio2+0x116>
 8000ef6:	2400      	movs	r4, #0
 8000ef8:	2500      	movs	r5, #0
 8000efa:	e7f1      	b.n	8000ee0 <__kernel_rem_pio2+0x2d8>
 8000efc:	08002d58 	.word	0x08002d58
 8000f00:	2aaaaaab 	.word	0x2aaaaaab
 8000f04:	3e700000 	.word	0x3e700000
 8000f08:	41700000 	.word	0x41700000
 8000f0c:	40200000 	.word	0x40200000
 8000f10:	d16e      	bne.n	8000ff0 <__kernel_rem_pio2+0x3e8>
 8000f12:	9b01      	ldr	r3, [sp, #4]
 8000f14:	aa0c      	add	r2, sp, #48	; 0x30
 8000f16:	3b01      	subs	r3, #1
 8000f18:	f852 5023 	ldr.w	r5, [r2, r3, lsl #2]
 8000f1c:	15ed      	asrs	r5, r5, #23
 8000f1e:	2d00      	cmp	r5, #0
 8000f20:	f77f af74 	ble.w	8000e0c <__kernel_rem_pio2+0x204>
 8000f24:	9b01      	ldr	r3, [sp, #4]
 8000f26:	f108 0801 	add.w	r8, r8, #1
 8000f2a:	2b00      	cmp	r3, #0
 8000f2c:	f340 81d4 	ble.w	80012d8 <__kernel_rem_pio2+0x6d0>
 8000f30:	9c0c      	ldr	r4, [sp, #48]	; 0x30
 8000f32:	2c00      	cmp	r4, #0
 8000f34:	d159      	bne.n	8000fea <__kernel_rem_pio2+0x3e2>
 8000f36:	9b01      	ldr	r3, [sp, #4]
 8000f38:	2b01      	cmp	r3, #1
 8000f3a:	d028      	beq.n	8000f8e <__kernel_rem_pio2+0x386>
 8000f3c:	2201      	movs	r2, #1
 8000f3e:	a90c      	add	r1, sp, #48	; 0x30
 8000f40:	f851 4f04 	ldr.w	r4, [r1, #4]!
 8000f44:	1c53      	adds	r3, r2, #1
 8000f46:	b944      	cbnz	r4, 8000f5a <__kernel_rem_pio2+0x352>
 8000f48:	9a01      	ldr	r2, [sp, #4]
 8000f4a:	429a      	cmp	r2, r3
 8000f4c:	d01f      	beq.n	8000f8e <__kernel_rem_pio2+0x386>
 8000f4e:	461a      	mov	r2, r3
 8000f50:	f851 4f04 	ldr.w	r4, [r1, #4]!
 8000f54:	1c53      	adds	r3, r2, #1
 8000f56:	2c00      	cmp	r4, #0
 8000f58:	d0f6      	beq.n	8000f48 <__kernel_rem_pio2+0x340>
 8000f5a:	a90c      	add	r1, sp, #48	; 0x30
 8000f5c:	f1c4 7480 	rsb	r4, r4, #16777216	; 0x1000000
 8000f60:	f841 4022 	str.w	r4, [r1, r2, lsl #2]
 8000f64:	9901      	ldr	r1, [sp, #4]
 8000f66:	4299      	cmp	r1, r3
 8000f68:	dd10      	ble.n	8000f8c <__kernel_rem_pio2+0x384>
 8000f6a:	ac0c      	add	r4, sp, #48	; 0x30
 8000f6c:	aa0c      	add	r2, sp, #48	; 0x30
 8000f6e:	f852 2023 	ldr.w	r2, [r2, r3, lsl #2]
 8000f72:	f06f 407f 	mvn.w	r0, #4278190080	; 0xff000000
 8000f76:	eb04 0383 	add.w	r3, r4, r3, lsl #2
 8000f7a:	eb04 0181 	add.w	r1, r4, r1, lsl #2
 8000f7e:	e000      	b.n	8000f82 <__kernel_rem_pio2+0x37a>
 8000f80:	681a      	ldr	r2, [r3, #0]
 8000f82:	1a82      	subs	r2, r0, r2
 8000f84:	f843 2b04 	str.w	r2, [r3], #4
 8000f88:	428b      	cmp	r3, r1
 8000f8a:	d1f9      	bne.n	8000f80 <__kernel_rem_pio2+0x378>
 8000f8c:	2401      	movs	r4, #1
 8000f8e:	9b06      	ldr	r3, [sp, #24]
 8000f90:	2b00      	cmp	r3, #0
 8000f92:	dd0e      	ble.n	8000fb2 <__kernel_rem_pio2+0x3aa>
 8000f94:	2b01      	cmp	r3, #1
 8000f96:	f000 817d 	beq.w	8001294 <__kernel_rem_pio2+0x68c>
 8000f9a:	2b02      	cmp	r3, #2
 8000f9c:	d109      	bne.n	8000fb2 <__kernel_rem_pio2+0x3aa>
 8000f9e:	9b01      	ldr	r3, [sp, #4]
 8000fa0:	a90c      	add	r1, sp, #48	; 0x30
 8000fa2:	1e5a      	subs	r2, r3, #1
 8000fa4:	ab0c      	add	r3, sp, #48	; 0x30
 8000fa6:	f853 3022 	ldr.w	r3, [r3, r2, lsl #2]
 8000faa:	f3c3 0315 	ubfx	r3, r3, #0, #22
 8000fae:	f841 3022 	str.w	r3, [r1, r2, lsl #2]
 8000fb2:	2d02      	cmp	r5, #2
 8000fb4:	f47f af2a 	bne.w	8000e0c <__kernel_rem_pio2+0x204>
 8000fb8:	4632      	mov	r2, r6
 8000fba:	463b      	mov	r3, r7
 8000fbc:	2000      	movs	r0, #0
 8000fbe:	49be      	ldr	r1, [pc, #760]	; (80012b8 <__kernel_rem_pio2+0x6b0>)
 8000fc0:	f000 fd3e 	bl	8001a40 <__aeabi_dsub>
 8000fc4:	4606      	mov	r6, r0
 8000fc6:	460f      	mov	r7, r1
 8000fc8:	2c00      	cmp	r4, #0
 8000fca:	f43f af1f 	beq.w	8000e0c <__kernel_rem_pio2+0x204>
 8000fce:	9a06      	ldr	r2, [sp, #24]
 8000fd0:	2000      	movs	r0, #0
 8000fd2:	49b9      	ldr	r1, [pc, #740]	; (80012b8 <__kernel_rem_pio2+0x6b0>)
 8000fd4:	f000 fb8c 	bl	80016f0 <scalbn>
 8000fd8:	4602      	mov	r2, r0
 8000fda:	460b      	mov	r3, r1
 8000fdc:	4630      	mov	r0, r6
 8000fde:	4639      	mov	r1, r7
 8000fe0:	f000 fd2e 	bl	8001a40 <__aeabi_dsub>
 8000fe4:	4606      	mov	r6, r0
 8000fe6:	460f      	mov	r7, r1
 8000fe8:	e710      	b.n	8000e0c <__kernel_rem_pio2+0x204>
 8000fea:	2301      	movs	r3, #1
 8000fec:	2200      	movs	r2, #0
 8000fee:	e7b4      	b.n	8000f5a <__kernel_rem_pio2+0x352>
 8000ff0:	2200      	movs	r2, #0
 8000ff2:	4bb2      	ldr	r3, [pc, #712]	; (80012bc <__kernel_rem_pio2+0x6b4>)
 8000ff4:	f000 ff50 	bl	8001e98 <__aeabi_dcmpge>
 8000ff8:	4605      	mov	r5, r0
 8000ffa:	2800      	cmp	r0, #0
 8000ffc:	f43f af06 	beq.w	8000e0c <__kernel_rem_pio2+0x204>
 8001000:	9b01      	ldr	r3, [sp, #4]
 8001002:	f108 0801 	add.w	r8, r8, #1
 8001006:	2b00      	cmp	r3, #0
 8001008:	bfc8      	it	gt
 800100a:	2502      	movgt	r5, #2
 800100c:	dc90      	bgt.n	8000f30 <__kernel_rem_pio2+0x328>
 800100e:	4632      	mov	r2, r6
 8001010:	463b      	mov	r3, r7
 8001012:	2000      	movs	r0, #0
 8001014:	49a8      	ldr	r1, [pc, #672]	; (80012b8 <__kernel_rem_pio2+0x6b0>)
 8001016:	f000 fd13 	bl	8001a40 <__aeabi_dsub>
 800101a:	2502      	movs	r5, #2
 800101c:	4606      	mov	r6, r0
 800101e:	460f      	mov	r7, r1
 8001020:	e6f4      	b.n	8000e0c <__kernel_rem_pio2+0x204>
 8001022:	9b01      	ldr	r3, [sp, #4]
 8001024:	1c5a      	adds	r2, r3, #1
 8001026:	4691      	mov	r9, r2
 8001028:	9202      	str	r2, [sp, #8]
 800102a:	e723      	b.n	8000e74 <__kernel_rem_pio2+0x26c>
 800102c:	2400      	movs	r4, #0
 800102e:	2500      	movs	r5, #0
 8001030:	e65d      	b.n	8000cee <__kernel_rem_pio2+0xe6>
 8001032:	9a06      	ldr	r2, [sp, #24]
 8001034:	ab0c      	add	r3, sp, #48	; 0x30
 8001036:	f853 302a 	ldr.w	r3, [r3, sl, lsl #2]
 800103a:	3a18      	subs	r2, #24
 800103c:	f8cd 801c 	str.w	r8, [sp, #28]
 8001040:	9504      	str	r5, [sp, #16]
 8001042:	9206      	str	r2, [sp, #24]
 8001044:	b973      	cbnz	r3, 8001064 <__kernel_rem_pio2+0x45c>
 8001046:	9b01      	ldr	r3, [sp, #4]
 8001048:	a90c      	add	r1, sp, #48	; 0x30
 800104a:	f103 4380 	add.w	r3, r3, #1073741824	; 0x40000000
 800104e:	3b02      	subs	r3, #2
 8001050:	eb01 0383 	add.w	r3, r1, r3, lsl #2
 8001054:	f853 1904 	ldr.w	r1, [r3], #-4
 8001058:	f10a 3aff 	add.w	sl, sl, #4294967295	; 0xffffffff
 800105c:	3a18      	subs	r2, #24
 800105e:	2900      	cmp	r1, #0
 8001060:	d0f8      	beq.n	8001054 <__kernel_rem_pio2+0x44c>
 8001062:	9206      	str	r2, [sp, #24]
 8001064:	2000      	movs	r0, #0
 8001066:	9a06      	ldr	r2, [sp, #24]
 8001068:	4993      	ldr	r1, [pc, #588]	; (80012b8 <__kernel_rem_pio2+0x6b0>)
 800106a:	f000 fb41 	bl	80016f0 <scalbn>
 800106e:	f1ba 0f00 	cmp.w	sl, #0
 8001072:	4604      	mov	r4, r0
 8001074:	460d      	mov	r5, r1
 8001076:	f2c0 81d7 	blt.w	8001428 <__kernel_rem_pio2+0x820>
 800107a:	ab70      	add	r3, sp, #448	; 0x1c0
 800107c:	eb03 0bca 	add.w	fp, r3, sl, lsl #3
 8001080:	aa0c      	add	r2, sp, #48	; 0x30
 8001082:	f10a 0301 	add.w	r3, sl, #1
 8001086:	9308      	str	r3, [sp, #32]
 8001088:	eb02 0883 	add.w	r8, r2, r3, lsl #2
 800108c:	ea4f 03ca 	mov.w	r3, sl, lsl #3
 8001090:	f10b 0908 	add.w	r9, fp, #8
 8001094:	9306      	str	r3, [sp, #24]
 8001096:	f858 0d04 	ldr.w	r0, [r8, #-4]!
 800109a:	f000 fe1f 	bl	8001cdc <__aeabi_i2d>
 800109e:	4622      	mov	r2, r4
 80010a0:	462b      	mov	r3, r5
 80010a2:	f000 fb9f 	bl	80017e4 <__aeabi_dmul>
 80010a6:	4606      	mov	r6, r0
 80010a8:	460f      	mov	r7, r1
 80010aa:	4620      	mov	r0, r4
 80010ac:	4629      	mov	r1, r5
 80010ae:	4b84      	ldr	r3, [pc, #528]	; (80012c0 <__kernel_rem_pio2+0x6b8>)
 80010b0:	2200      	movs	r2, #0
 80010b2:	e969 6702 	strd	r6, r7, [r9, #-8]!
 80010b6:	f000 fb95 	bl	80017e4 <__aeabi_dmul>
 80010ba:	ab0c      	add	r3, sp, #48	; 0x30
 80010bc:	4598      	cmp	r8, r3
 80010be:	4604      	mov	r4, r0
 80010c0:	460d      	mov	r5, r1
 80010c2:	d1e8      	bne.n	8001096 <__kernel_rem_pio2+0x48e>
 80010c4:	f04f 0900 	mov.w	r9, #0
 80010c8:	ab48      	add	r3, sp, #288	; 0x120
 80010ca:	e9cd b301 	strd	fp, r3, [sp, #4]
 80010ce:	f8cd a024 	str.w	sl, [sp, #36]	; 0x24
 80010d2:	46d3      	mov	fp, sl
 80010d4:	f8dd a014 	ldr.w	sl, [sp, #20]
 80010d8:	9303      	str	r3, [sp, #12]
 80010da:	f1ba 0f00 	cmp.w	sl, #0
 80010de:	f2c0 80f8 	blt.w	80012d2 <__kernel_rem_pio2+0x6ca>
 80010e2:	a373      	add	r3, pc, #460	; (adr r3, 80012b0 <__kernel_rem_pio2+0x6a8>)
 80010e4:	e9d3 2300 	ldrd	r2, r3, [r3]
 80010e8:	2400      	movs	r4, #0
 80010ea:	2500      	movs	r5, #0
 80010ec:	2600      	movs	r6, #0
 80010ee:	f8df 81d4 	ldr.w	r8, [pc, #468]	; 80012c4 <__kernel_rem_pio2+0x6bc>
 80010f2:	9f01      	ldr	r7, [sp, #4]
 80010f4:	e003      	b.n	80010fe <__kernel_rem_pio2+0x4f6>
 80010f6:	454e      	cmp	r6, r9
 80010f8:	dc10      	bgt.n	800111c <__kernel_rem_pio2+0x514>
 80010fa:	e8f8 2302 	ldrd	r2, r3, [r8], #8
 80010fe:	e8f7 0102 	ldrd	r0, r1, [r7], #8
 8001102:	f000 fb6f 	bl	80017e4 <__aeabi_dmul>
 8001106:	4602      	mov	r2, r0
 8001108:	460b      	mov	r3, r1
 800110a:	4620      	mov	r0, r4
 800110c:	4629      	mov	r1, r5
 800110e:	f000 fc99 	bl	8001a44 <__adddf3>
 8001112:	3601      	adds	r6, #1
 8001114:	45b2      	cmp	sl, r6
 8001116:	4604      	mov	r4, r0
 8001118:	460d      	mov	r5, r1
 800111a:	daec      	bge.n	80010f6 <__kernel_rem_pio2+0x4ee>
 800111c:	9b02      	ldr	r3, [sp, #8]
 800111e:	f10b 3bff 	add.w	fp, fp, #4294967295	; 0xffffffff
 8001122:	e8e3 4502 	strd	r4, r5, [r3], #8
 8001126:	9302      	str	r3, [sp, #8]
 8001128:	9b01      	ldr	r3, [sp, #4]
 800112a:	f1bb 3fff 	cmp.w	fp, #4294967295	; 0xffffffff
 800112e:	f1a3 0308 	sub.w	r3, r3, #8
 8001132:	f109 0901 	add.w	r9, r9, #1
 8001136:	9301      	str	r3, [sp, #4]
 8001138:	d1cf      	bne.n	80010da <__kernel_rem_pio2+0x4d2>
 800113a:	9ba2      	ldr	r3, [sp, #648]	; 0x288
 800113c:	f8dd a024 	ldr.w	sl, [sp, #36]	; 0x24
 8001140:	2b02      	cmp	r3, #2
 8001142:	dc23      	bgt.n	800118c <__kernel_rem_pio2+0x584>
 8001144:	2b00      	cmp	r3, #0
 8001146:	f300 80fc 	bgt.w	8001342 <__kernel_rem_pio2+0x73a>
 800114a:	d118      	bne.n	800117e <__kernel_rem_pio2+0x576>
 800114c:	9ba2      	ldr	r3, [sp, #648]	; 0x288
 800114e:	9d06      	ldr	r5, [sp, #24]
 8001150:	461c      	mov	r4, r3
 8001152:	9e03      	ldr	r6, [sp, #12]
 8001154:	3508      	adds	r5, #8
 8001156:	4435      	add	r5, r6
 8001158:	4618      	mov	r0, r3
 800115a:	e975 2302 	ldrd	r2, r3, [r5, #-8]!
 800115e:	4621      	mov	r1, r4
 8001160:	f000 fc70 	bl	8001a44 <__adddf3>
 8001164:	42b5      	cmp	r5, r6
 8001166:	4603      	mov	r3, r0
 8001168:	460c      	mov	r4, r1
 800116a:	d1f5      	bne.n	8001158 <__kernel_rem_pio2+0x550>
 800116c:	9a04      	ldr	r2, [sp, #16]
 800116e:	b10a      	cbz	r2, 8001174 <__kernel_rem_pio2+0x56c>
 8001170:	f104 4400 	add.w	r4, r4, #2147483648	; 0x80000000
 8001174:	4618      	mov	r0, r3
 8001176:	4621      	mov	r1, r4
 8001178:	9b0b      	ldr	r3, [sp, #44]	; 0x2c
 800117a:	e9c3 0100 	strd	r0, r1, [r3]
 800117e:	9b07      	ldr	r3, [sp, #28]
 8001180:	f003 0007 	and.w	r0, r3, #7
 8001184:	f50d 7d19 	add.w	sp, sp, #612	; 0x264
 8001188:	e8bd 8ff0 	ldmia.w	sp!, {r4, r5, r6, r7, r8, r9, sl, fp, pc}
 800118c:	9ba2      	ldr	r3, [sp, #648]	; 0x288
 800118e:	2b03      	cmp	r3, #3
 8001190:	d1f5      	bne.n	800117e <__kernel_rem_pio2+0x576>
 8001192:	f1ba 0f00 	cmp.w	sl, #0
 8001196:	f000 815d 	beq.w	8001454 <__kernel_rem_pio2+0x84c>
 800119a:	9b03      	ldr	r3, [sp, #12]
 800119c:	9a06      	ldr	r2, [sp, #24]
 800119e:	4413      	add	r3, r2
 80011a0:	469b      	mov	fp, r3
 80011a2:	e9d3 4500 	ldrd	r4, r5, [r3]
 80011a6:	e95b 6702 	ldrd	r6, r7, [fp, #-8]
 80011aa:	4620      	mov	r0, r4
 80011ac:	4629      	mov	r1, r5
 80011ae:	4632      	mov	r2, r6
 80011b0:	463b      	mov	r3, r7
 80011b2:	f000 fc47 	bl	8001a44 <__adddf3>
 80011b6:	46a0      	mov	r8, r4
 80011b8:	46a9      	mov	r9, r5
 80011ba:	4604      	mov	r4, r0
 80011bc:	460d      	mov	r5, r1
 80011be:	4622      	mov	r2, r4
 80011c0:	462b      	mov	r3, r5
 80011c2:	4630      	mov	r0, r6
 80011c4:	4639      	mov	r1, r7
 80011c6:	f000 fc3b 	bl	8001a40 <__aeabi_dsub>
 80011ca:	464b      	mov	r3, r9
 80011cc:	4642      	mov	r2, r8
 80011ce:	f000 fc39 	bl	8001a44 <__adddf3>
 80011d2:	e9cb 0100 	strd	r0, r1, [fp]
 80011d6:	e96b 4502 	strd	r4, r5, [fp, #-8]!
 80011da:	9b03      	ldr	r3, [sp, #12]
 80011dc:	455b      	cmp	r3, fp
 80011de:	d1e2      	bne.n	80011a6 <__kernel_rem_pio2+0x59e>
 80011e0:	f1ba 0f01 	cmp.w	sl, #1
 80011e4:	f340 8136 	ble.w	8001454 <__kernel_rem_pio2+0x84c>
 80011e8:	9b06      	ldr	r3, [sp, #24]
 80011ea:	9a03      	ldr	r2, [sp, #12]
 80011ec:	f50d 7b94 	add.w	fp, sp, #296	; 0x128
 80011f0:	4413      	add	r3, r2
 80011f2:	469a      	mov	sl, r3
 80011f4:	e9d3 4500 	ldrd	r4, r5, [r3]
 80011f8:	9301      	str	r3, [sp, #4]
 80011fa:	e95a 6702 	ldrd	r6, r7, [sl, #-8]
 80011fe:	4620      	mov	r0, r4
 8001200:	4629      	mov	r1, r5
 8001202:	4632      	mov	r2, r6
 8001204:	463b      	mov	r3, r7
 8001206:	f000 fc1d 	bl	8001a44 <__adddf3>
 800120a:	46a0      	mov	r8, r4
 800120c:	46a9      	mov	r9, r5
 800120e:	4604      	mov	r4, r0
 8001210:	460d      	mov	r5, r1
 8001212:	4622      	mov	r2, r4
 8001214:	462b      	mov	r3, r5
 8001216:	4630      	mov	r0, r6
 8001218:	4639      	mov	r1, r7
 800121a:	f000 fc11 	bl	8001a40 <__aeabi_dsub>
 800121e:	4642      	mov	r2, r8
 8001220:	464b      	mov	r3, r9
 8001222:	f000 fc0f 	bl	8001a44 <__adddf3>
 8001226:	e9ca 0100 	strd	r0, r1, [sl]
 800122a:	e96a 4502 	strd	r4, r5, [sl, #-8]!
 800122e:	45d3      	cmp	fp, sl
 8001230:	d1e3      	bne.n	80011fa <__kernel_rem_pio2+0x5f2>
 8001232:	2300      	movs	r3, #0
 8001234:	4619      	mov	r1, r3
 8001236:	9e01      	ldr	r6, [sp, #4]
 8001238:	9a03      	ldr	r2, [sp, #12]
 800123a:	3608      	adds	r6, #8
 800123c:	f102 0710 	add.w	r7, r2, #16
 8001240:	461c      	mov	r4, r3
 8001242:	e976 2302 	ldrd	r2, r3, [r6, #-8]!
 8001246:	4620      	mov	r0, r4
 8001248:	f000 fbfc 	bl	8001a44 <__adddf3>
 800124c:	42b7      	cmp	r7, r6
 800124e:	4603      	mov	r3, r0
 8001250:	d1f6      	bne.n	8001240 <__kernel_rem_pio2+0x638>
 8001252:	9a03      	ldr	r2, [sp, #12]
 8001254:	4614      	mov	r4, r2
 8001256:	4610      	mov	r0, r2
 8001258:	f8d4 e00c 	ldr.w	lr, [r4, #12]
 800125c:	9c04      	ldr	r4, [sp, #16]
 800125e:	f8d2 c000 	ldr.w	ip, [r2]
 8001262:	6880      	ldr	r0, [r0, #8]
 8001264:	6852      	ldr	r2, [r2, #4]
 8001266:	2c00      	cmp	r4, #0
 8001268:	f040 80b4 	bne.w	80013d4 <__kernel_rem_pio2+0x7cc>
 800126c:	4606      	mov	r6, r0
 800126e:	461c      	mov	r4, r3
 8001270:	46e0      	mov	r8, ip
 8001272:	4691      	mov	r9, r2
 8001274:	4677      	mov	r7, lr
 8001276:	460d      	mov	r5, r1
 8001278:	9b0b      	ldr	r3, [sp, #44]	; 0x2c
 800127a:	e9c3 8900 	strd	r8, r9, [r3]
 800127e:	e9c3 6702 	strd	r6, r7, [r3, #8]
 8001282:	e9c3 4504 	strd	r4, r5, [r3, #16]
 8001286:	9b07      	ldr	r3, [sp, #28]
 8001288:	f003 0007 	and.w	r0, r3, #7
 800128c:	f50d 7d19 	add.w	sp, sp, #612	; 0x264
 8001290:	e8bd 8ff0 	ldmia.w	sp!, {r4, r5, r6, r7, r8, r9, sl, fp, pc}
 8001294:	9b01      	ldr	r3, [sp, #4]
 8001296:	a90c      	add	r1, sp, #48	; 0x30
 8001298:	1e5a      	subs	r2, r3, #1
 800129a:	ab0c      	add	r3, sp, #48	; 0x30
 800129c:	f853 3022 	ldr.w	r3, [r3, r2, lsl #2]
 80012a0:	f3c3 0316 	ubfx	r3, r3, #0, #23
 80012a4:	f841 3022 	str.w	r3, [r1, r2, lsl #2]
 80012a8:	e683      	b.n	8000fb2 <__kernel_rem_pio2+0x3aa>
 80012aa:	bf00      	nop
 80012ac:	f3af 8000 	nop.w
 80012b0:	40000000 	.word	0x40000000
 80012b4:	3ff921fb 	.word	0x3ff921fb
 80012b8:	3ff00000 	.word	0x3ff00000
 80012bc:	3fe00000 	.word	0x3fe00000
 80012c0:	3e700000 	.word	0x3e700000
 80012c4:	08002d20 	.word	0x08002d20
 80012c8:	2100      	movs	r1, #0
 80012ca:	f06f 0317 	mvn.w	r3, #23
 80012ce:	9107      	str	r1, [sp, #28]
 80012d0:	e4b9      	b.n	8000c46 <__kernel_rem_pio2+0x3e>
 80012d2:	2400      	movs	r4, #0
 80012d4:	2500      	movs	r5, #0
 80012d6:	e721      	b.n	800111c <__kernel_rem_pio2+0x514>
 80012d8:	2400      	movs	r4, #0
 80012da:	e658      	b.n	8000f8e <__kernel_rem_pio2+0x386>
 80012dc:	4639      	mov	r1, r7
 80012de:	9f06      	ldr	r7, [sp, #24]
 80012e0:	4630      	mov	r0, r6
 80012e2:	427a      	negs	r2, r7
 80012e4:	9504      	str	r5, [sp, #16]
 80012e6:	f8cd 801c 	str.w	r8, [sp, #28]
 80012ea:	f000 fa01 	bl	80016f0 <scalbn>
 80012ee:	2200      	movs	r2, #0
 80012f0:	4b5a      	ldr	r3, [pc, #360]	; (800145c <__kernel_rem_pio2+0x854>)
 80012f2:	4604      	mov	r4, r0
 80012f4:	460d      	mov	r5, r1
 80012f6:	f000 fdcf 	bl	8001e98 <__aeabi_dcmpge>
 80012fa:	2800      	cmp	r0, #0
 80012fc:	d060      	beq.n	80013c0 <__kernel_rem_pio2+0x7b8>
 80012fe:	2200      	movs	r2, #0
 8001300:	4b57      	ldr	r3, [pc, #348]	; (8001460 <__kernel_rem_pio2+0x858>)
 8001302:	4620      	mov	r0, r4
 8001304:	4629      	mov	r1, r5
 8001306:	f000 fa6d 	bl	80017e4 <__aeabi_dmul>
 800130a:	f000 fdd9 	bl	8001ec0 <__aeabi_d2iz>
 800130e:	4606      	mov	r6, r0
 8001310:	f000 fce4 	bl	8001cdc <__aeabi_i2d>
 8001314:	2200      	movs	r2, #0
 8001316:	4b51      	ldr	r3, [pc, #324]	; (800145c <__kernel_rem_pio2+0x854>)
 8001318:	f000 fa64 	bl	80017e4 <__aeabi_dmul>
 800131c:	4602      	mov	r2, r0
 800131e:	460b      	mov	r3, r1
 8001320:	4620      	mov	r0, r4
 8001322:	4629      	mov	r1, r5
 8001324:	f000 fb8c 	bl	8001a40 <__aeabi_dsub>
 8001328:	f000 fdca 	bl	8001ec0 <__aeabi_d2iz>
 800132c:	9b01      	ldr	r3, [sp, #4]
 800132e:	aa0c      	add	r2, sp, #48	; 0x30
 8001330:	f103 0a01 	add.w	sl, r3, #1
 8001334:	3718      	adds	r7, #24
 8001336:	f842 0023 	str.w	r0, [r2, r3, lsl #2]
 800133a:	9706      	str	r7, [sp, #24]
 800133c:	f842 602a 	str.w	r6, [r2, sl, lsl #2]
 8001340:	e690      	b.n	8001064 <__kernel_rem_pio2+0x45c>
 8001342:	2600      	movs	r6, #0
 8001344:	9b03      	ldr	r3, [sp, #12]
 8001346:	9908      	ldr	r1, [sp, #32]
 8001348:	4698      	mov	r8, r3
 800134a:	eb03 07c1 	add.w	r7, r3, r1, lsl #3
 800134e:	4631      	mov	r1, r6
 8001350:	e977 2302 	ldrd	r2, r3, [r7, #-8]!
 8001354:	4630      	mov	r0, r6
 8001356:	f000 fb75 	bl	8001a44 <__adddf3>
 800135a:	45b8      	cmp	r8, r7
 800135c:	4606      	mov	r6, r0
 800135e:	d1f7      	bne.n	8001350 <__kernel_rem_pio2+0x748>
 8001360:	9b04      	ldr	r3, [sp, #16]
 8001362:	2b00      	cmp	r3, #0
 8001364:	d14b      	bne.n	80013fe <__kernel_rem_pio2+0x7f6>
 8001366:	4634      	mov	r4, r6
 8001368:	460d      	mov	r5, r1
 800136a:	4632      	mov	r2, r6
 800136c:	9e0b      	ldr	r6, [sp, #44]	; 0x2c
 800136e:	460b      	mov	r3, r1
 8001370:	e9dd 0148 	ldrd	r0, r1, [sp, #288]	; 0x120
 8001374:	e9c6 4500 	strd	r4, r5, [r6]
 8001378:	f000 fb62 	bl	8001a40 <__aeabi_dsub>
 800137c:	f1ba 0f00 	cmp.w	sl, #0
 8001380:	4603      	mov	r3, r0
 8001382:	460e      	mov	r6, r1
 8001384:	dd10      	ble.n	80013a8 <__kernel_rem_pio2+0x7a0>
 8001386:	2401      	movs	r4, #1
 8001388:	ad48      	add	r5, sp, #288	; 0x120
 800138a:	4618      	mov	r0, r3
 800138c:	e9f5 2302 	ldrd	r2, r3, [r5, #8]!
 8001390:	4631      	mov	r1, r6
 8001392:	f000 fb57 	bl	8001a44 <__adddf3>
 8001396:	3401      	adds	r4, #1
 8001398:	45a2      	cmp	sl, r4
 800139a:	4603      	mov	r3, r0
 800139c:	460e      	mov	r6, r1
 800139e:	daf4      	bge.n	800138a <__kernel_rem_pio2+0x782>
 80013a0:	9a04      	ldr	r2, [sp, #16]
 80013a2:	b10a      	cbz	r2, 80013a8 <__kernel_rem_pio2+0x7a0>
 80013a4:	f106 4600 	add.w	r6, r6, #2147483648	; 0x80000000
 80013a8:	4618      	mov	r0, r3
 80013aa:	4631      	mov	r1, r6
 80013ac:	9b0b      	ldr	r3, [sp, #44]	; 0x2c
 80013ae:	e9c3 0102 	strd	r0, r1, [r3, #8]
 80013b2:	9b07      	ldr	r3, [sp, #28]
 80013b4:	f003 0007 	and.w	r0, r3, #7
 80013b8:	f50d 7d19 	add.w	sp, sp, #612	; 0x264
 80013bc:	e8bd 8ff0 	ldmia.w	sp!, {r4, r5, r6, r7, r8, r9, sl, fp, pc}
 80013c0:	4620      	mov	r0, r4
 80013c2:	4629      	mov	r1, r5
 80013c4:	f000 fd7c 	bl	8001ec0 <__aeabi_d2iz>
 80013c8:	9b01      	ldr	r3, [sp, #4]
 80013ca:	aa0c      	add	r2, sp, #48	; 0x30
 80013cc:	469a      	mov	sl, r3
 80013ce:	f842 0023 	str.w	r0, [r2, r3, lsl #2]
 80013d2:	e647      	b.n	8001064 <__kernel_rem_pio2+0x45c>
 80013d4:	9d0b      	ldr	r5, [sp, #44]	; 0x2c
 80013d6:	f102 4200 	add.w	r2, r2, #2147483648	; 0x80000000
 80013da:	612b      	str	r3, [r5, #16]
 80013dc:	9b07      	ldr	r3, [sp, #28]
 80013de:	f10e 4400 	add.w	r4, lr, #2147483648	; 0x80000000
 80013e2:	f101 4100 	add.w	r1, r1, #2147483648	; 0x80000000
 80013e6:	60a8      	str	r0, [r5, #8]
 80013e8:	f003 0007 	and.w	r0, r3, #7
 80013ec:	606a      	str	r2, [r5, #4]
 80013ee:	60ec      	str	r4, [r5, #12]
 80013f0:	6169      	str	r1, [r5, #20]
 80013f2:	f8c5 c000 	str.w	ip, [r5]
 80013f6:	f50d 7d19 	add.w	sp, sp, #612	; 0x264
 80013fa:	e8bd 8ff0 	ldmia.w	sp!, {r4, r5, r6, r7, r8, r9, sl, fp, pc}
 80013fe:	9d0b      	ldr	r5, [sp, #44]	; 0x2c
 8001400:	f101 4400 	add.w	r4, r1, #2147483648	; 0x80000000
 8001404:	460b      	mov	r3, r1
 8001406:	e9dd 0148 	ldrd	r0, r1, [sp, #288]	; 0x120
 800140a:	4632      	mov	r2, r6
 800140c:	e9c5 6400 	strd	r6, r4, [r5]
 8001410:	f000 fb16 	bl	8001a40 <__aeabi_dsub>
 8001414:	f1ba 0f00 	cmp.w	sl, #0
 8001418:	4603      	mov	r3, r0
 800141a:	460e      	mov	r6, r1
 800141c:	dcb3      	bgt.n	8001386 <__kernel_rem_pio2+0x77e>
 800141e:	e7c1      	b.n	80013a4 <__kernel_rem_pio2+0x79c>
 8001420:	9b08      	ldr	r3, [sp, #32]
 8001422:	00db      	lsls	r3, r3, #3
 8001424:	9302      	str	r3, [sp, #8]
 8001426:	e46b      	b.n	8000d00 <__kernel_rem_pio2+0xf8>
 8001428:	9ba2      	ldr	r3, [sp, #648]	; 0x288
 800142a:	2b02      	cmp	r3, #2
 800142c:	dc06      	bgt.n	800143c <__kernel_rem_pio2+0x834>
 800142e:	2b00      	cmp	r3, #0
 8001430:	dc0d      	bgt.n	800144e <__kernel_rem_pio2+0x846>
 8001432:	f47f aea4 	bne.w	800117e <__kernel_rem_pio2+0x576>
 8001436:	9ba2      	ldr	r3, [sp, #648]	; 0x288
 8001438:	461c      	mov	r4, r3
 800143a:	e697      	b.n	800116c <__kernel_rem_pio2+0x564>
 800143c:	9ba2      	ldr	r3, [sp, #648]	; 0x288
 800143e:	2b03      	cmp	r3, #3
 8001440:	f47f ae9d 	bne.w	800117e <__kernel_rem_pio2+0x576>
 8001444:	2300      	movs	r3, #0
 8001446:	aa48      	add	r2, sp, #288	; 0x120
 8001448:	4619      	mov	r1, r3
 800144a:	9203      	str	r2, [sp, #12]
 800144c:	e701      	b.n	8001252 <__kernel_rem_pio2+0x64a>
 800144e:	2600      	movs	r6, #0
 8001450:	4631      	mov	r1, r6
 8001452:	e785      	b.n	8001360 <__kernel_rem_pio2+0x758>
 8001454:	2300      	movs	r3, #0
 8001456:	4619      	mov	r1, r3
 8001458:	e6fb      	b.n	8001252 <__kernel_rem_pio2+0x64a>
 800145a:	bf00      	nop
 800145c:	41700000 	.word	0x41700000
 8001460:	3e700000 	.word	0x3e700000
 8001464:	00000000 	.word	0x00000000

08001468 <__kernel_sin>:
 8001468:	e92d 4ff0 	stmdb	sp!, {r4, r5, r6, r7, r8, r9, sl, fp, lr}
 800146c:	f021 4600 	bic.w	r6, r1, #2147483648	; 0x80000000
 8001470:	b085      	sub	sp, #20
 8001472:	f1b6 5f79 	cmp.w	r6, #1044381696	; 0x3e400000
 8001476:	4604      	mov	r4, r0
 8001478:	e9cd 2302 	strd	r2, r3, [sp, #8]
 800147c:	9101      	str	r1, [sp, #4]
 800147e:	da04      	bge.n	800148a <__kernel_sin+0x22>
 8001480:	f000 fd1e 	bl	8001ec0 <__aeabi_d2iz>
 8001484:	2800      	cmp	r0, #0
 8001486:	f000 808f 	beq.w	80015a8 <__kernel_sin+0x140>
 800148a:	9b01      	ldr	r3, [sp, #4]
 800148c:	4622      	mov	r2, r4
 800148e:	4619      	mov	r1, r3
 8001490:	4620      	mov	r0, r4
 8001492:	f000 f9a7 	bl	80017e4 <__aeabi_dmul>
 8001496:	f8dd 9004 	ldr.w	r9, [sp, #4]
 800149a:	4606      	mov	r6, r0
 800149c:	460f      	mov	r7, r1
 800149e:	4602      	mov	r2, r0
 80014a0:	460b      	mov	r3, r1
 80014a2:	4620      	mov	r0, r4
 80014a4:	4649      	mov	r1, r9
 80014a6:	f000 f99d 	bl	80017e4 <__aeabi_dmul>
 80014aa:	a343      	add	r3, pc, #268	; (adr r3, 80015b8 <__kernel_sin+0x150>)
 80014ac:	e9d3 2300 	ldrd	r2, r3, [r3]
 80014b0:	4682      	mov	sl, r0
 80014b2:	468b      	mov	fp, r1
 80014b4:	4630      	mov	r0, r6
 80014b6:	4639      	mov	r1, r7
 80014b8:	f000 f994 	bl	80017e4 <__aeabi_dmul>
 80014bc:	a340      	add	r3, pc, #256	; (adr r3, 80015c0 <__kernel_sin+0x158>)
 80014be:	e9d3 2300 	ldrd	r2, r3, [r3]
 80014c2:	f000 fabd 	bl	8001a40 <__aeabi_dsub>
 80014c6:	4632      	mov	r2, r6
 80014c8:	463b      	mov	r3, r7
 80014ca:	f000 f98b 	bl	80017e4 <__aeabi_dmul>
 80014ce:	a33e      	add	r3, pc, #248	; (adr r3, 80015c8 <__kernel_sin+0x160>)
 80014d0:	e9d3 2300 	ldrd	r2, r3, [r3]
 80014d4:	f000 fab6 	bl	8001a44 <__adddf3>
 80014d8:	4632      	mov	r2, r6
 80014da:	463b      	mov	r3, r7
 80014dc:	f000 f982 	bl	80017e4 <__aeabi_dmul>
 80014e0:	a33b      	add	r3, pc, #236	; (adr r3, 80015d0 <__kernel_sin+0x168>)
 80014e2:	e9d3 2300 	ldrd	r2, r3, [r3]
 80014e6:	f000 faab 	bl	8001a40 <__aeabi_dsub>
 80014ea:	4632      	mov	r2, r6
 80014ec:	463b      	mov	r3, r7
 80014ee:	f000 f979 	bl	80017e4 <__aeabi_dmul>
 80014f2:	a339      	add	r3, pc, #228	; (adr r3, 80015d8 <__kernel_sin+0x170>)
 80014f4:	e9d3 2300 	ldrd	r2, r3, [r3]
 80014f8:	f000 faa4 	bl	8001a44 <__adddf3>
 80014fc:	9b0e      	ldr	r3, [sp, #56]	; 0x38
 80014fe:	4680      	mov	r8, r0
 8001500:	4689      	mov	r9, r1
 8001502:	b3bb      	cbz	r3, 8001574 <__kernel_sin+0x10c>
 8001504:	e9dd 0102 	ldrd	r0, r1, [sp, #8]
 8001508:	2200      	movs	r2, #0
 800150a:	4b37      	ldr	r3, [pc, #220]	; (80015e8 <__kernel_sin+0x180>)
 800150c:	f000 f96a 	bl	80017e4 <__aeabi_dmul>
 8001510:	4642      	mov	r2, r8
 8001512:	464b      	mov	r3, r9
 8001514:	4680      	mov	r8, r0
 8001516:	4689      	mov	r9, r1
 8001518:	4650      	mov	r0, sl
 800151a:	4659      	mov	r1, fp
 800151c:	f000 f962 	bl	80017e4 <__aeabi_dmul>
 8001520:	4602      	mov	r2, r0
 8001522:	460b      	mov	r3, r1
 8001524:	4640      	mov	r0, r8
 8001526:	4649      	mov	r1, r9
 8001528:	f000 fa8a 	bl	8001a40 <__aeabi_dsub>
 800152c:	4632      	mov	r2, r6
 800152e:	463b      	mov	r3, r7
 8001530:	f000 f958 	bl	80017e4 <__aeabi_dmul>
 8001534:	e9dd 2302 	ldrd	r2, r3, [sp, #8]
 8001538:	f000 fa82 	bl	8001a40 <__aeabi_dsub>
 800153c:	a328      	add	r3, pc, #160	; (adr r3, 80015e0 <__kernel_sin+0x178>)
 800153e:	e9d3 2300 	ldrd	r2, r3, [r3]
 8001542:	4606      	mov	r6, r0
 8001544:	460f      	mov	r7, r1
 8001546:	4650      	mov	r0, sl
 8001548:	4659      	mov	r1, fp
 800154a:	f000 f94b 	bl	80017e4 <__aeabi_dmul>
 800154e:	4602      	mov	r2, r0
 8001550:	460b      	mov	r3, r1
 8001552:	4630      	mov	r0, r6
 8001554:	4639      	mov	r1, r7
 8001556:	f000 fa75 	bl	8001a44 <__adddf3>
 800155a:	4602      	mov	r2, r0
 800155c:	460b      	mov	r3, r1
 800155e:	4620      	mov	r0, r4
 8001560:	9901      	ldr	r1, [sp, #4]
 8001562:	f000 fa6d 	bl	8001a40 <__aeabi_dsub>
 8001566:	4604      	mov	r4, r0
 8001568:	460d      	mov	r5, r1
 800156a:	4620      	mov	r0, r4
 800156c:	4629      	mov	r1, r5
 800156e:	b005      	add	sp, #20
 8001570:	e8bd 8ff0 	ldmia.w	sp!, {r4, r5, r6, r7, r8, r9, sl, fp, pc}
 8001574:	4602      	mov	r2, r0
 8001576:	460b      	mov	r3, r1
 8001578:	4630      	mov	r0, r6
 800157a:	4639      	mov	r1, r7
 800157c:	f000 f932 	bl	80017e4 <__aeabi_dmul>
 8001580:	a317      	add	r3, pc, #92	; (adr r3, 80015e0 <__kernel_sin+0x178>)
 8001582:	e9d3 2300 	ldrd	r2, r3, [r3]
 8001586:	f000 fa5b 	bl	8001a40 <__aeabi_dsub>
 800158a:	4652      	mov	r2, sl
 800158c:	465b      	mov	r3, fp
 800158e:	f000 f929 	bl	80017e4 <__aeabi_dmul>
 8001592:	4622      	mov	r2, r4
 8001594:	9b01      	ldr	r3, [sp, #4]
 8001596:	f000 fa55 	bl	8001a44 <__adddf3>
 800159a:	4604      	mov	r4, r0
 800159c:	460d      	mov	r5, r1
 800159e:	4620      	mov	r0, r4
 80015a0:	4629      	mov	r1, r5
 80015a2:	b005      	add	sp, #20
 80015a4:	e8bd 8ff0 	ldmia.w	sp!, {r4, r5, r6, r7, r8, r9, sl, fp, pc}
 80015a8:	9d01      	ldr	r5, [sp, #4]
 80015aa:	4620      	mov	r0, r4
 80015ac:	4629      	mov	r1, r5
 80015ae:	b005      	add	sp, #20
 80015b0:	e8bd 8ff0 	ldmia.w	sp!, {r4, r5, r6, r7, r8, r9, sl, fp, pc}
 80015b4:	f3af 8000 	nop.w
 80015b8:	5acfd57c 	.word	0x5acfd57c
 80015bc:	3de5d93a 	.word	0x3de5d93a
 80015c0:	8a2b9ceb 	.word	0x8a2b9ceb
 80015c4:	3e5ae5e6 	.word	0x3e5ae5e6
 80015c8:	57b1fe7d 	.word	0x57b1fe7d
 80015cc:	3ec71de3 	.word	0x3ec71de3
 80015d0:	19c161d5 	.word	0x19c161d5
 80015d4:	3f2a01a0 	.word	0x3f2a01a0
 80015d8:	1110f8a6 	.word	0x1110f8a6
 80015dc:	3f811111 	.word	0x3f811111
 80015e0:	55555549 	.word	0x55555549
 80015e4:	3fc55555 	.word	0x3fc55555
 80015e8:	3fe00000 	.word	0x3fe00000

080015ec <fabs>:
 80015ec:	f021 4100 	bic.w	r1, r1, #2147483648	; 0x80000000
 80015f0:	4770      	bx	lr
 80015f2:	bf00      	nop
 80015f4:	0000      	movs	r0, r0
	...

080015f8 <floor>:
 80015f8:	b5f8      	push	{r3, r4, r5, r6, r7, lr}
 80015fa:	f3c1 570a 	ubfx	r7, r1, #20, #11
 80015fe:	f2a7 35ff 	subw	r5, r7, #1023	; 0x3ff
 8001602:	2d13      	cmp	r5, #19
 8001604:	460b      	mov	r3, r1
 8001606:	460c      	mov	r4, r1
 8001608:	4602      	mov	r2, r0
 800160a:	4606      	mov	r6, r0
 800160c:	dc20      	bgt.n	8001650 <floor+0x58>
 800160e:	2d00      	cmp	r5, #0
 8001610:	db40      	blt.n	8001694 <floor+0x9c>
 8001612:	4f35      	ldr	r7, [pc, #212]	; (80016e8 <floor+0xf0>)
 8001614:	412f      	asrs	r7, r5
 8001616:	ea01 0c07 	and.w	ip, r1, r7
 800161a:	ea5c 0c00 	orrs.w	ip, ip, r0
 800161e:	d014      	beq.n	800164a <floor+0x52>
 8001620:	a32f      	add	r3, pc, #188	; (adr r3, 80016e0 <floor+0xe8>)
 8001622:	e9d3 2300 	ldrd	r2, r3, [r3]
 8001626:	f000 fa0d 	bl	8001a44 <__adddf3>
 800162a:	2200      	movs	r2, #0
 800162c:	2300      	movs	r3, #0
 800162e:	f000 fc3d 	bl	8001eac <__aeabi_dcmpgt>
 8001632:	b140      	cbz	r0, 8001646 <floor+0x4e>
 8001634:	2c00      	cmp	r4, #0
 8001636:	da03      	bge.n	8001640 <floor+0x48>
 8001638:	f44f 1380 	mov.w	r3, #1048576	; 0x100000
 800163c:	412b      	asrs	r3, r5
 800163e:	441c      	add	r4, r3
 8001640:	2600      	movs	r6, #0
 8001642:	ea24 0407 	bic.w	r4, r4, r7
 8001646:	4632      	mov	r2, r6
 8001648:	4623      	mov	r3, r4
 800164a:	4610      	mov	r0, r2
 800164c:	4619      	mov	r1, r3
 800164e:	bdf8      	pop	{r3, r4, r5, r6, r7, pc}
 8001650:	2d33      	cmp	r5, #51	; 0x33
 8001652:	dd07      	ble.n	8001664 <floor+0x6c>
 8001654:	f5b5 6f80 	cmp.w	r5, #1024	; 0x400
 8001658:	d1f7      	bne.n	800164a <floor+0x52>
 800165a:	f000 f9f3 	bl	8001a44 <__adddf3>
 800165e:	4602      	mov	r2, r0
 8001660:	460b      	mov	r3, r1
 8001662:	e7f2      	b.n	800164a <floor+0x52>
 8001664:	f04f 3cff 	mov.w	ip, #4294967295	; 0xffffffff
 8001668:	f2a7 4713 	subw	r7, r7, #1043	; 0x413
 800166c:	fa2c f707 	lsr.w	r7, ip, r7
 8001670:	4207      	tst	r7, r0
 8001672:	d0ea      	beq.n	800164a <floor+0x52>
 8001674:	a31a      	add	r3, pc, #104	; (adr r3, 80016e0 <floor+0xe8>)
 8001676:	e9d3 2300 	ldrd	r2, r3, [r3]
 800167a:	f000 f9e3 	bl	8001a44 <__adddf3>
 800167e:	2200      	movs	r2, #0
 8001680:	2300      	movs	r3, #0
 8001682:	f000 fc13 	bl	8001eac <__aeabi_dcmpgt>
 8001686:	2800      	cmp	r0, #0
 8001688:	d0dd      	beq.n	8001646 <floor+0x4e>
 800168a:	2c00      	cmp	r4, #0
 800168c:	db1b      	blt.n	80016c6 <floor+0xce>
 800168e:	ea26 0607 	bic.w	r6, r6, r7
 8001692:	e7d8      	b.n	8001646 <floor+0x4e>
 8001694:	a312      	add	r3, pc, #72	; (adr r3, 80016e0 <floor+0xe8>)
 8001696:	e9d3 2300 	ldrd	r2, r3, [r3]
 800169a:	f000 f9d3 	bl	8001a44 <__adddf3>
 800169e:	2200      	movs	r2, #0
 80016a0:	2300      	movs	r3, #0
 80016a2:	f000 fc03 	bl	8001eac <__aeabi_dcmpgt>
 80016a6:	2800      	cmp	r0, #0
 80016a8:	d0cd      	beq.n	8001646 <floor+0x4e>
 80016aa:	2c00      	cmp	r4, #0
 80016ac:	db02      	blt.n	80016b4 <floor+0xbc>
 80016ae:	2600      	movs	r6, #0
 80016b0:	4634      	mov	r4, r6
 80016b2:	e7c8      	b.n	8001646 <floor+0x4e>
 80016b4:	f024 4300 	bic.w	r3, r4, #2147483648	; 0x80000000
 80016b8:	4a0c      	ldr	r2, [pc, #48]	; (80016ec <floor+0xf4>)
 80016ba:	431e      	orrs	r6, r3
 80016bc:	2e00      	cmp	r6, #0
 80016be:	bf18      	it	ne
 80016c0:	4614      	movne	r4, r2
 80016c2:	2600      	movs	r6, #0
 80016c4:	e7bf      	b.n	8001646 <floor+0x4e>
 80016c6:	2d14      	cmp	r5, #20
 80016c8:	d008      	beq.n	80016dc <floor+0xe4>
 80016ca:	2201      	movs	r2, #1
 80016cc:	f1c5 0334 	rsb	r3, r5, #52	; 0x34
 80016d0:	fa02 f303 	lsl.w	r3, r2, r3
 80016d4:	199e      	adds	r6, r3, r6
 80016d6:	bf28      	it	cs
 80016d8:	18a4      	addcs	r4, r4, r2
 80016da:	e7d8      	b.n	800168e <floor+0x96>
 80016dc:	3401      	adds	r4, #1
 80016de:	e7d6      	b.n	800168e <floor+0x96>
 80016e0:	8800759c 	.word	0x8800759c
 80016e4:	7e37e43c 	.word	0x7e37e43c
 80016e8:	000fffff 	.word	0x000fffff
 80016ec:	bff00000 	.word	0xbff00000

080016f0 <scalbn>:
 80016f0:	b5f8      	push	{r3, r4, r5, r6, r7, lr}
 80016f2:	f3c1 530a 	ubfx	r3, r1, #20, #11
 80016f6:	4604      	mov	r4, r0
 80016f8:	460d      	mov	r5, r1
 80016fa:	460e      	mov	r6, r1
 80016fc:	4617      	mov	r7, r2
 80016fe:	bb73      	cbnz	r3, 800175e <scalbn+0x6e>
 8001700:	4603      	mov	r3, r0
 8001702:	f021 4600 	bic.w	r6, r1, #2147483648	; 0x80000000
 8001706:	4333      	orrs	r3, r6
 8001708:	d028      	beq.n	800175c <scalbn+0x6c>
 800170a:	4b31      	ldr	r3, [pc, #196]	; (80017d0 <scalbn+0xe0>)
 800170c:	2200      	movs	r2, #0
 800170e:	f000 f869 	bl	80017e4 <__aeabi_dmul>
 8001712:	4b30      	ldr	r3, [pc, #192]	; (80017d4 <scalbn+0xe4>)
 8001714:	4604      	mov	r4, r0
 8001716:	429f      	cmp	r7, r3
 8001718:	460d      	mov	r5, r1
 800171a:	db1a      	blt.n	8001752 <scalbn+0x62>
 800171c:	460e      	mov	r6, r1
 800171e:	f3c1 530a 	ubfx	r3, r1, #20, #11
 8001722:	3b36      	subs	r3, #54	; 0x36
 8001724:	f240 72fe 	movw	r2, #2046	; 0x7fe
 8001728:	443b      	add	r3, r7
 800172a:	4293      	cmp	r3, r2
 800172c:	dc20      	bgt.n	8001770 <scalbn+0x80>
 800172e:	2b00      	cmp	r3, #0
 8001730:	dc3c      	bgt.n	80017ac <scalbn+0xbc>
 8001732:	f113 0f35 	cmn.w	r3, #53	; 0x35
 8001736:	da2c      	bge.n	8001792 <scalbn+0xa2>
 8001738:	f24c 3350 	movw	r3, #50000	; 0xc350
 800173c:	429f      	cmp	r7, r3
 800173e:	dc17      	bgt.n	8001770 <scalbn+0x80>
 8001740:	f005 4300 	and.w	r3, r5, #2147483648	; 0x80000000
 8001744:	f043 71d2 	orr.w	r1, r3, #27525120	; 0x1a40000
 8001748:	f441 31b7 	orr.w	r1, r1, #93696	; 0x16e00
 800174c:	4822      	ldr	r0, [pc, #136]	; (80017d8 <scalbn+0xe8>)
 800174e:	f041 011f 	orr.w	r1, r1, #31
 8001752:	a31b      	add	r3, pc, #108	; (adr r3, 80017c0 <scalbn+0xd0>)
 8001754:	e9d3 2300 	ldrd	r2, r3, [r3]
 8001758:	f000 f844 	bl	80017e4 <__aeabi_dmul>
 800175c:	bdf8      	pop	{r3, r4, r5, r6, r7, pc}
 800175e:	f240 72ff 	movw	r2, #2047	; 0x7ff
 8001762:	4293      	cmp	r3, r2
 8001764:	d1de      	bne.n	8001724 <scalbn+0x34>
 8001766:	4602      	mov	r2, r0
 8001768:	460b      	mov	r3, r1
 800176a:	f000 f96b 	bl	8001a44 <__adddf3>
 800176e:	bdf8      	pop	{r3, r4, r5, r6, r7, pc}
 8001770:	f005 4400 	and.w	r4, r5, #2147483648	; 0x80000000
 8001774:	f044 41fc 	orr.w	r1, r4, #2113929216	; 0x7e000000
 8001778:	f441 115f 	orr.w	r1, r1, #3653632	; 0x37c000
 800177c:	f441 5110 	orr.w	r1, r1, #9216	; 0x2400
 8001780:	a311      	add	r3, pc, #68	; (adr r3, 80017c8 <scalbn+0xd8>)
 8001782:	e9d3 2300 	ldrd	r2, r3, [r3]
 8001786:	4815      	ldr	r0, [pc, #84]	; (80017dc <scalbn+0xec>)
 8001788:	f041 013c 	orr.w	r1, r1, #60	; 0x3c
 800178c:	f000 f82a 	bl	80017e4 <__aeabi_dmul>
 8001790:	bdf8      	pop	{r3, r4, r5, r6, r7, pc}
 8001792:	f026 46ff 	bic.w	r6, r6, #2139095040	; 0x7f800000
 8001796:	f426 06e0 	bic.w	r6, r6, #7340032	; 0x700000
 800179a:	3336      	adds	r3, #54	; 0x36
 800179c:	ea46 5103 	orr.w	r1, r6, r3, lsl #20
 80017a0:	4620      	mov	r0, r4
 80017a2:	2200      	movs	r2, #0
 80017a4:	4b0e      	ldr	r3, [pc, #56]	; (80017e0 <scalbn+0xf0>)
 80017a6:	f000 f81d 	bl	80017e4 <__aeabi_dmul>
 80017aa:	bdf8      	pop	{r3, r4, r5, r6, r7, pc}
 80017ac:	f026 46ff 	bic.w	r6, r6, #2139095040	; 0x7f800000
 80017b0:	f426 06e0 	bic.w	r6, r6, #7340032	; 0x700000
 80017b4:	4620      	mov	r0, r4
 80017b6:	ea46 5103 	orr.w	r1, r6, r3, lsl #20
 80017ba:	bdf8      	pop	{r3, r4, r5, r6, r7, pc}
 80017bc:	f3af 8000 	nop.w
 80017c0:	c2f8f359 	.word	0xc2f8f359
 80017c4:	01a56e1f 	.word	0x01a56e1f
 80017c8:	8800759c 	.word	0x8800759c
 80017cc:	7e37e43c 	.word	0x7e37e43c
 80017d0:	43500000 	.word	0x43500000
 80017d4:	ffff3cb0 	.word	0xffff3cb0
 80017d8:	c2f8f359 	.word	0xc2f8f359
 80017dc:	8800759c 	.word	0x8800759c
 80017e0:	3c900000 	.word	0x3c900000

080017e4 <__aeabi_dmul>:
 80017e4:	b570      	push	{r4, r5, r6, lr}
 80017e6:	f04f 0cff 	mov.w	ip, #255	; 0xff
 80017ea:	f44c 6ce0 	orr.w	ip, ip, #1792	; 0x700
 80017ee:	ea1c 5411 	ands.w	r4, ip, r1, lsr #20
 80017f2:	bf1d      	ittte	ne
 80017f4:	ea1c 5513 	andsne.w	r5, ip, r3, lsr #20
 80017f8:	ea94 0f0c 	teqne	r4, ip
 80017fc:	ea95 0f0c 	teqne	r5, ip
 8001800:	f000 f8de 	bleq	80019c0 <__aeabi_dmul+0x1dc>
 8001804:	442c      	add	r4, r5
 8001806:	ea81 0603 	eor.w	r6, r1, r3
 800180a:	ea21 514c 	bic.w	r1, r1, ip, lsl #21
 800180e:	ea23 534c 	bic.w	r3, r3, ip, lsl #21
 8001812:	ea50 3501 	orrs.w	r5, r0, r1, lsl #12
 8001816:	bf18      	it	ne
 8001818:	ea52 3503 	orrsne.w	r5, r2, r3, lsl #12
 800181c:	f441 1180 	orr.w	r1, r1, #1048576	; 0x100000
 8001820:	f443 1380 	orr.w	r3, r3, #1048576	; 0x100000
 8001824:	d038      	beq.n	8001898 <__aeabi_dmul+0xb4>
 8001826:	fba0 ce02 	umull	ip, lr, r0, r2
 800182a:	f04f 0500 	mov.w	r5, #0
 800182e:	fbe1 e502 	umlal	lr, r5, r1, r2
 8001832:	f006 4200 	and.w	r2, r6, #2147483648	; 0x80000000
 8001836:	fbe0 e503 	umlal	lr, r5, r0, r3
 800183a:	f04f 0600 	mov.w	r6, #0
 800183e:	fbe1 5603 	umlal	r5, r6, r1, r3
 8001842:	f09c 0f00 	teq	ip, #0
 8001846:	bf18      	it	ne
 8001848:	f04e 0e01 	orrne.w	lr, lr, #1
 800184c:	f1a4 04ff 	sub.w	r4, r4, #255	; 0xff
 8001850:	f5b6 7f00 	cmp.w	r6, #512	; 0x200
 8001854:	f564 7440 	sbc.w	r4, r4, #768	; 0x300
 8001858:	d204      	bcs.n	8001864 <__aeabi_dmul+0x80>
 800185a:	ea5f 0e4e 	movs.w	lr, lr, lsl #1
 800185e:	416d      	adcs	r5, r5
 8001860:	eb46 0606 	adc.w	r6, r6, r6
 8001864:	ea42 21c6 	orr.w	r1, r2, r6, lsl #11
 8001868:	ea41 5155 	orr.w	r1, r1, r5, lsr #21
 800186c:	ea4f 20c5 	mov.w	r0, r5, lsl #11
 8001870:	ea40 505e 	orr.w	r0, r0, lr, lsr #21
 8001874:	ea4f 2ece 	mov.w	lr, lr, lsl #11
 8001878:	f1b4 0cfd 	subs.w	ip, r4, #253	; 0xfd
 800187c:	bf88      	it	hi
 800187e:	f5bc 6fe0 	cmphi.w	ip, #1792	; 0x700
 8001882:	d81e      	bhi.n	80018c2 <__aeabi_dmul+0xde>
 8001884:	f1be 4f00 	cmp.w	lr, #2147483648	; 0x80000000
 8001888:	bf08      	it	eq
 800188a:	ea5f 0e50 	movseq.w	lr, r0, lsr #1
 800188e:	f150 0000 	adcs.w	r0, r0, #0
 8001892:	eb41 5104 	adc.w	r1, r1, r4, lsl #20
 8001896:	bd70      	pop	{r4, r5, r6, pc}
 8001898:	f006 4600 	and.w	r6, r6, #2147483648	; 0x80000000
 800189c:	ea46 0101 	orr.w	r1, r6, r1
 80018a0:	ea40 0002 	orr.w	r0, r0, r2
 80018a4:	ea81 0103 	eor.w	r1, r1, r3
 80018a8:	ebb4 045c 	subs.w	r4, r4, ip, lsr #1
 80018ac:	bfc2      	ittt	gt
 80018ae:	ebd4 050c 	rsbsgt	r5, r4, ip
 80018b2:	ea41 5104 	orrgt.w	r1, r1, r4, lsl #20
 80018b6:	bd70      	popgt	{r4, r5, r6, pc}
 80018b8:	f441 1180 	orr.w	r1, r1, #1048576	; 0x100000
 80018bc:	f04f 0e00 	mov.w	lr, #0
 80018c0:	3c01      	subs	r4, #1
 80018c2:	f300 80ab 	bgt.w	8001a1c <__aeabi_dmul+0x238>
 80018c6:	f114 0f36 	cmn.w	r4, #54	; 0x36
 80018ca:	bfde      	ittt	le
 80018cc:	2000      	movle	r0, #0
 80018ce:	f001 4100 	andle.w	r1, r1, #2147483648	; 0x80000000
 80018d2:	bd70      	pople	{r4, r5, r6, pc}
 80018d4:	f1c4 0400 	rsb	r4, r4, #0
 80018d8:	3c20      	subs	r4, #32
 80018da:	da35      	bge.n	8001948 <__aeabi_dmul+0x164>
 80018dc:	340c      	adds	r4, #12
 80018de:	dc1b      	bgt.n	8001918 <__aeabi_dmul+0x134>
 80018e0:	f104 0414 	add.w	r4, r4, #20
 80018e4:	f1c4 0520 	rsb	r5, r4, #32
 80018e8:	fa00 f305 	lsl.w	r3, r0, r5
 80018ec:	fa20 f004 	lsr.w	r0, r0, r4
 80018f0:	fa01 f205 	lsl.w	r2, r1, r5
 80018f4:	ea40 0002 	orr.w	r0, r0, r2
 80018f8:	f001 4200 	and.w	r2, r1, #2147483648	; 0x80000000
 80018fc:	f021 4100 	bic.w	r1, r1, #2147483648	; 0x80000000
 8001900:	eb10 70d3 	adds.w	r0, r0, r3, lsr #31
 8001904:	fa21 f604 	lsr.w	r6, r1, r4
 8001908:	eb42 0106 	adc.w	r1, r2, r6
 800190c:	ea5e 0e43 	orrs.w	lr, lr, r3, lsl #1
 8001910:	bf08      	it	eq
 8001912:	ea20 70d3 	biceq.w	r0, r0, r3, lsr #31
 8001916:	bd70      	pop	{r4, r5, r6, pc}
 8001918:	f1c4 040c 	rsb	r4, r4, #12
 800191c:	f1c4 0520 	rsb	r5, r4, #32
 8001920:	fa00 f304 	lsl.w	r3, r0, r4
 8001924:	fa20 f005 	lsr.w	r0, r0, r5
 8001928:	fa01 f204 	lsl.w	r2, r1, r4
 800192c:	ea40 0002 	orr.w	r0, r0, r2
 8001930:	f001 4100 	and.w	r1, r1, #2147483648	; 0x80000000
 8001934:	eb10 70d3 	adds.w	r0, r0, r3, lsr #31
 8001938:	f141 0100 	adc.w	r1, r1, #0
 800193c:	ea5e 0e43 	orrs.w	lr, lr, r3, lsl #1
 8001940:	bf08      	it	eq
 8001942:	ea20 70d3 	biceq.w	r0, r0, r3, lsr #31
 8001946:	bd70      	pop	{r4, r5, r6, pc}
 8001948:	f1c4 0520 	rsb	r5, r4, #32
 800194c:	fa00 f205 	lsl.w	r2, r0, r5
 8001950:	ea4e 0e02 	orr.w	lr, lr, r2
 8001954:	fa20 f304 	lsr.w	r3, r0, r4
 8001958:	fa01 f205 	lsl.w	r2, r1, r5
 800195c:	ea43 0302 	orr.w	r3, r3, r2
 8001960:	fa21 f004 	lsr.w	r0, r1, r4
 8001964:	f001 4100 	and.w	r1, r1, #2147483648	; 0x80000000
 8001968:	fa21 f204 	lsr.w	r2, r1, r4
 800196c:	ea20 0002 	bic.w	r0, r0, r2
 8001970:	eb00 70d3 	add.w	r0, r0, r3, lsr #31
 8001974:	ea5e 0e43 	orrs.w	lr, lr, r3, lsl #1
 8001978:	bf08      	it	eq
 800197a:	ea20 70d3 	biceq.w	r0, r0, r3, lsr #31
 800197e:	bd70      	pop	{r4, r5, r6, pc}
 8001980:	f094 0f00 	teq	r4, #0
 8001984:	d10f      	bne.n	80019a6 <__aeabi_dmul+0x1c2>
 8001986:	f001 4600 	and.w	r6, r1, #2147483648	; 0x80000000
 800198a:	0040      	lsls	r0, r0, #1
 800198c:	eb41 0101 	adc.w	r1, r1, r1
 8001990:	f411 1f80 	tst.w	r1, #1048576	; 0x100000
 8001994:	bf08      	it	eq
 8001996:	3c01      	subeq	r4, #1
 8001998:	d0f7      	beq.n	800198a <__aeabi_dmul+0x1a6>
 800199a:	ea41 0106 	orr.w	r1, r1, r6
 800199e:	f095 0f00 	teq	r5, #0
 80019a2:	bf18      	it	ne
 80019a4:	4770      	bxne	lr
 80019a6:	f003 4600 	and.w	r6, r3, #2147483648	; 0x80000000
 80019aa:	0052      	lsls	r2, r2, #1
 80019ac:	eb43 0303 	adc.w	r3, r3, r3
 80019b0:	f413 1f80 	tst.w	r3, #1048576	; 0x100000
 80019b4:	bf08      	it	eq
 80019b6:	3d01      	subeq	r5, #1
 80019b8:	d0f7      	beq.n	80019aa <__aeabi_dmul+0x1c6>
 80019ba:	ea43 0306 	orr.w	r3, r3, r6
 80019be:	4770      	bx	lr
 80019c0:	ea94 0f0c 	teq	r4, ip
 80019c4:	ea0c 5513 	and.w	r5, ip, r3, lsr #20
 80019c8:	bf18      	it	ne
 80019ca:	ea95 0f0c 	teqne	r5, ip
 80019ce:	d00c      	beq.n	80019ea <__aeabi_dmul+0x206>
 80019d0:	ea50 0641 	orrs.w	r6, r0, r1, lsl #1
 80019d4:	bf18      	it	ne
 80019d6:	ea52 0643 	orrsne.w	r6, r2, r3, lsl #1
 80019da:	d1d1      	bne.n	8001980 <__aeabi_dmul+0x19c>
 80019dc:	ea81 0103 	eor.w	r1, r1, r3
 80019e0:	f001 4100 	and.w	r1, r1, #2147483648	; 0x80000000
 80019e4:	f04f 0000 	mov.w	r0, #0
 80019e8:	bd70      	pop	{r4, r5, r6, pc}
 80019ea:	ea50 0641 	orrs.w	r6, r0, r1, lsl #1
 80019ee:	bf06      	itte	eq
 80019f0:	4610      	moveq	r0, r2
 80019f2:	4619      	moveq	r1, r3
 80019f4:	ea52 0643 	orrsne.w	r6, r2, r3, lsl #1
 80019f8:	d019      	beq.n	8001a2e <__aeabi_dmul+0x24a>
 80019fa:	ea94 0f0c 	teq	r4, ip
 80019fe:	d102      	bne.n	8001a06 <__aeabi_dmul+0x222>
 8001a00:	ea50 3601 	orrs.w	r6, r0, r1, lsl #12
 8001a04:	d113      	bne.n	8001a2e <__aeabi_dmul+0x24a>
 8001a06:	ea95 0f0c 	teq	r5, ip
 8001a0a:	d105      	bne.n	8001a18 <__aeabi_dmul+0x234>
 8001a0c:	ea52 3603 	orrs.w	r6, r2, r3, lsl #12
 8001a10:	bf1c      	itt	ne
 8001a12:	4610      	movne	r0, r2
 8001a14:	4619      	movne	r1, r3
 8001a16:	d10a      	bne.n	8001a2e <__aeabi_dmul+0x24a>
 8001a18:	ea81 0103 	eor.w	r1, r1, r3
 8001a1c:	f001 4100 	and.w	r1, r1, #2147483648	; 0x80000000
 8001a20:	f041 41fe 	orr.w	r1, r1, #2130706432	; 0x7f000000
 8001a24:	f441 0170 	orr.w	r1, r1, #15728640	; 0xf00000
 8001a28:	f04f 0000 	mov.w	r0, #0
 8001a2c:	bd70      	pop	{r4, r5, r6, pc}
 8001a2e:	f041 41fe 	orr.w	r1, r1, #2130706432	; 0x7f000000
 8001a32:	f441 0178 	orr.w	r1, r1, #16252928	; 0xf80000
 8001a36:	bd70      	pop	{r4, r5, r6, pc}

08001a38 <__aeabi_drsub>:
 8001a38:	f081 4100 	eor.w	r1, r1, #2147483648	; 0x80000000
 8001a3c:	e002      	b.n	8001a44 <__adddf3>
 8001a3e:	bf00      	nop

08001a40 <__aeabi_dsub>:
 8001a40:	f083 4300 	eor.w	r3, r3, #2147483648	; 0x80000000

08001a44 <__adddf3>:
 8001a44:	b530      	push	{r4, r5, lr}
 8001a46:	ea4f 0441 	mov.w	r4, r1, lsl #1
 8001a4a:	ea4f 0543 	mov.w	r5, r3, lsl #1
 8001a4e:	ea94 0f05 	teq	r4, r5
 8001a52:	bf08      	it	eq
 8001a54:	ea90 0f02 	teqeq	r0, r2
 8001a58:	bf1f      	itttt	ne
 8001a5a:	ea54 0c00 	orrsne.w	ip, r4, r0
 8001a5e:	ea55 0c02 	orrsne.w	ip, r5, r2
 8001a62:	ea7f 5c64 	mvnsne.w	ip, r4, asr #21
 8001a66:	ea7f 5c65 	mvnsne.w	ip, r5, asr #21
 8001a6a:	f000 80e2 	beq.w	8001c32 <__adddf3+0x1ee>
 8001a6e:	ea4f 5454 	mov.w	r4, r4, lsr #21
 8001a72:	ebd4 5555 	rsbs	r5, r4, r5, lsr #21
 8001a76:	bfb8      	it	lt
 8001a78:	426d      	neglt	r5, r5
 8001a7a:	dd0c      	ble.n	8001a96 <__adddf3+0x52>
 8001a7c:	442c      	add	r4, r5
 8001a7e:	ea80 0202 	eor.w	r2, r0, r2
 8001a82:	ea81 0303 	eor.w	r3, r1, r3
 8001a86:	ea82 0000 	eor.w	r0, r2, r0
 8001a8a:	ea83 0101 	eor.w	r1, r3, r1
 8001a8e:	ea80 0202 	eor.w	r2, r0, r2
 8001a92:	ea81 0303 	eor.w	r3, r1, r3
 8001a96:	2d36      	cmp	r5, #54	; 0x36
 8001a98:	bf88      	it	hi
 8001a9a:	bd30      	pophi	{r4, r5, pc}
 8001a9c:	f011 4f00 	tst.w	r1, #2147483648	; 0x80000000
 8001aa0:	ea4f 3101 	mov.w	r1, r1, lsl #12
 8001aa4:	f44f 1c80 	mov.w	ip, #1048576	; 0x100000
 8001aa8:	ea4c 3111 	orr.w	r1, ip, r1, lsr #12
 8001aac:	d002      	beq.n	8001ab4 <__adddf3+0x70>
 8001aae:	4240      	negs	r0, r0
 8001ab0:	eb61 0141 	sbc.w	r1, r1, r1, lsl #1
 8001ab4:	f013 4f00 	tst.w	r3, #2147483648	; 0x80000000
 8001ab8:	ea4f 3303 	mov.w	r3, r3, lsl #12
 8001abc:	ea4c 3313 	orr.w	r3, ip, r3, lsr #12
 8001ac0:	d002      	beq.n	8001ac8 <__adddf3+0x84>
 8001ac2:	4252      	negs	r2, r2
 8001ac4:	eb63 0343 	sbc.w	r3, r3, r3, lsl #1
 8001ac8:	ea94 0f05 	teq	r4, r5
 8001acc:	f000 80a7 	beq.w	8001c1e <__adddf3+0x1da>
 8001ad0:	f1a4 0401 	sub.w	r4, r4, #1
 8001ad4:	f1d5 0e20 	rsbs	lr, r5, #32
 8001ad8:	db0d      	blt.n	8001af6 <__adddf3+0xb2>
 8001ada:	fa02 fc0e 	lsl.w	ip, r2, lr
 8001ade:	fa22 f205 	lsr.w	r2, r2, r5
 8001ae2:	1880      	adds	r0, r0, r2
 8001ae4:	f141 0100 	adc.w	r1, r1, #0
 8001ae8:	fa03 f20e 	lsl.w	r2, r3, lr
 8001aec:	1880      	adds	r0, r0, r2
 8001aee:	fa43 f305 	asr.w	r3, r3, r5
 8001af2:	4159      	adcs	r1, r3
 8001af4:	e00e      	b.n	8001b14 <__adddf3+0xd0>
 8001af6:	f1a5 0520 	sub.w	r5, r5, #32
 8001afa:	f10e 0e20 	add.w	lr, lr, #32
 8001afe:	2a01      	cmp	r2, #1
 8001b00:	fa03 fc0e 	lsl.w	ip, r3, lr
 8001b04:	bf28      	it	cs
 8001b06:	f04c 0c02 	orrcs.w	ip, ip, #2
 8001b0a:	fa43 f305 	asr.w	r3, r3, r5
 8001b0e:	18c0      	adds	r0, r0, r3
 8001b10:	eb51 71e3 	adcs.w	r1, r1, r3, asr #31
 8001b14:	f001 4500 	and.w	r5, r1, #2147483648	; 0x80000000
 8001b18:	d507      	bpl.n	8001b2a <__adddf3+0xe6>
 8001b1a:	f04f 0e00 	mov.w	lr, #0
 8001b1e:	f1dc 0c00 	rsbs	ip, ip, #0
 8001b22:	eb7e 0000 	sbcs.w	r0, lr, r0
 8001b26:	eb6e 0101 	sbc.w	r1, lr, r1
 8001b2a:	f5b1 1f80 	cmp.w	r1, #1048576	; 0x100000
 8001b2e:	d31b      	bcc.n	8001b68 <__adddf3+0x124>
 8001b30:	f5b1 1f00 	cmp.w	r1, #2097152	; 0x200000
 8001b34:	d30c      	bcc.n	8001b50 <__adddf3+0x10c>
 8001b36:	0849      	lsrs	r1, r1, #1
 8001b38:	ea5f 0030 	movs.w	r0, r0, rrx
 8001b3c:	ea4f 0c3c 	mov.w	ip, ip, rrx
 8001b40:	f104 0401 	add.w	r4, r4, #1
 8001b44:	ea4f 5244 	mov.w	r2, r4, lsl #21
 8001b48:	f512 0f80 	cmn.w	r2, #4194304	; 0x400000
 8001b4c:	f080 809a 	bcs.w	8001c84 <__adddf3+0x240>
 8001b50:	f1bc 4f00 	cmp.w	ip, #2147483648	; 0x80000000
 8001b54:	bf08      	it	eq
 8001b56:	ea5f 0c50 	movseq.w	ip, r0, lsr #1
 8001b5a:	f150 0000 	adcs.w	r0, r0, #0
 8001b5e:	eb41 5104 	adc.w	r1, r1, r4, lsl #20
 8001b62:	ea41 0105 	orr.w	r1, r1, r5
 8001b66:	bd30      	pop	{r4, r5, pc}
 8001b68:	ea5f 0c4c 	movs.w	ip, ip, lsl #1
 8001b6c:	4140      	adcs	r0, r0
 8001b6e:	eb41 0101 	adc.w	r1, r1, r1
 8001b72:	3c01      	subs	r4, #1
 8001b74:	bf28      	it	cs
 8001b76:	f5b1 1f80 	cmpcs.w	r1, #1048576	; 0x100000
 8001b7a:	d2e9      	bcs.n	8001b50 <__adddf3+0x10c>
 8001b7c:	f091 0f00 	teq	r1, #0
 8001b80:	bf04      	itt	eq
 8001b82:	4601      	moveq	r1, r0
 8001b84:	2000      	moveq	r0, #0
 8001b86:	fab1 f381 	clz	r3, r1
 8001b8a:	bf08      	it	eq
 8001b8c:	3320      	addeq	r3, #32
 8001b8e:	f1a3 030b 	sub.w	r3, r3, #11
 8001b92:	f1b3 0220 	subs.w	r2, r3, #32
 8001b96:	da0c      	bge.n	8001bb2 <__adddf3+0x16e>
 8001b98:	320c      	adds	r2, #12
 8001b9a:	dd08      	ble.n	8001bae <__adddf3+0x16a>
 8001b9c:	f102 0c14 	add.w	ip, r2, #20
 8001ba0:	f1c2 020c 	rsb	r2, r2, #12
 8001ba4:	fa01 f00c 	lsl.w	r0, r1, ip
 8001ba8:	fa21 f102 	lsr.w	r1, r1, r2
 8001bac:	e00c      	b.n	8001bc8 <__adddf3+0x184>
 8001bae:	f102 0214 	add.w	r2, r2, #20
 8001bb2:	bfd8      	it	le
 8001bb4:	f1c2 0c20 	rsble	ip, r2, #32
 8001bb8:	fa01 f102 	lsl.w	r1, r1, r2
 8001bbc:	fa20 fc0c 	lsr.w	ip, r0, ip
 8001bc0:	bfdc      	itt	le
 8001bc2:	ea41 010c 	orrle.w	r1, r1, ip
 8001bc6:	4090      	lslle	r0, r2
 8001bc8:	1ae4      	subs	r4, r4, r3
 8001bca:	bfa2      	ittt	ge
 8001bcc:	eb01 5104 	addge.w	r1, r1, r4, lsl #20
 8001bd0:	4329      	orrge	r1, r5
 8001bd2:	bd30      	popge	{r4, r5, pc}
 8001bd4:	ea6f 0404 	mvn.w	r4, r4
 8001bd8:	3c1f      	subs	r4, #31
 8001bda:	da1c      	bge.n	8001c16 <__adddf3+0x1d2>
 8001bdc:	340c      	adds	r4, #12
 8001bde:	dc0e      	bgt.n	8001bfe <__adddf3+0x1ba>
 8001be0:	f104 0414 	add.w	r4, r4, #20
 8001be4:	f1c4 0220 	rsb	r2, r4, #32
 8001be8:	fa20 f004 	lsr.w	r0, r0, r4
 8001bec:	fa01 f302 	lsl.w	r3, r1, r2
 8001bf0:	ea40 0003 	orr.w	r0, r0, r3
 8001bf4:	fa21 f304 	lsr.w	r3, r1, r4
 8001bf8:	ea45 0103 	orr.w	r1, r5, r3
 8001bfc:	bd30      	pop	{r4, r5, pc}
 8001bfe:	f1c4 040c 	rsb	r4, r4, #12
 8001c02:	f1c4 0220 	rsb	r2, r4, #32
 8001c06:	fa20 f002 	lsr.w	r0, r0, r2
 8001c0a:	fa01 f304 	lsl.w	r3, r1, r4
 8001c0e:	ea40 0003 	orr.w	r0, r0, r3
 8001c12:	4629      	mov	r1, r5
 8001c14:	bd30      	pop	{r4, r5, pc}
 8001c16:	fa21 f004 	lsr.w	r0, r1, r4
 8001c1a:	4629      	mov	r1, r5
 8001c1c:	bd30      	pop	{r4, r5, pc}
 8001c1e:	f094 0f00 	teq	r4, #0
 8001c22:	f483 1380 	eor.w	r3, r3, #1048576	; 0x100000
 8001c26:	bf06      	itte	eq
 8001c28:	f481 1180 	eoreq.w	r1, r1, #1048576	; 0x100000
 8001c2c:	3401      	addeq	r4, #1
 8001c2e:	3d01      	subne	r5, #1
 8001c30:	e74e      	b.n	8001ad0 <__adddf3+0x8c>
 8001c32:	ea7f 5c64 	mvns.w	ip, r4, asr #21
 8001c36:	bf18      	it	ne
 8001c38:	ea7f 5c65 	mvnsne.w	ip, r5, asr #21
 8001c3c:	d029      	beq.n	8001c92 <__adddf3+0x24e>
 8001c3e:	ea94 0f05 	teq	r4, r5
 8001c42:	bf08      	it	eq
 8001c44:	ea90 0f02 	teqeq	r0, r2
 8001c48:	d005      	beq.n	8001c56 <__adddf3+0x212>
 8001c4a:	ea54 0c00 	orrs.w	ip, r4, r0
 8001c4e:	bf04      	itt	eq
 8001c50:	4619      	moveq	r1, r3
 8001c52:	4610      	moveq	r0, r2
 8001c54:	bd30      	pop	{r4, r5, pc}
 8001c56:	ea91 0f03 	teq	r1, r3
 8001c5a:	bf1e      	ittt	ne
 8001c5c:	2100      	movne	r1, #0
 8001c5e:	2000      	movne	r0, #0
 8001c60:	bd30      	popne	{r4, r5, pc}
 8001c62:	ea5f 5c54 	movs.w	ip, r4, lsr #21
 8001c66:	d105      	bne.n	8001c74 <__adddf3+0x230>
 8001c68:	0040      	lsls	r0, r0, #1
 8001c6a:	4149      	adcs	r1, r1
 8001c6c:	bf28      	it	cs
 8001c6e:	f041 4100 	orrcs.w	r1, r1, #2147483648	; 0x80000000
 8001c72:	bd30      	pop	{r4, r5, pc}
 8001c74:	f514 0480 	adds.w	r4, r4, #4194304	; 0x400000
 8001c78:	bf3c      	itt	cc
 8001c7a:	f501 1180 	addcc.w	r1, r1, #1048576	; 0x100000
 8001c7e:	bd30      	popcc	{r4, r5, pc}
 8001c80:	f001 4500 	and.w	r5, r1, #2147483648	; 0x80000000
 8001c84:	f045 41fe 	orr.w	r1, r5, #2130706432	; 0x7f000000
 8001c88:	f441 0170 	orr.w	r1, r1, #15728640	; 0xf00000
 8001c8c:	f04f 0000 	mov.w	r0, #0
 8001c90:	bd30      	pop	{r4, r5, pc}
 8001c92:	ea7f 5c64 	mvns.w	ip, r4, asr #21
 8001c96:	bf1a      	itte	ne
 8001c98:	4619      	movne	r1, r3
 8001c9a:	4610      	movne	r0, r2
 8001c9c:	ea7f 5c65 	mvnseq.w	ip, r5, asr #21
 8001ca0:	bf1c      	itt	ne
 8001ca2:	460b      	movne	r3, r1
 8001ca4:	4602      	movne	r2, r0
 8001ca6:	ea50 3401 	orrs.w	r4, r0, r1, lsl #12
 8001caa:	bf06      	itte	eq
 8001cac:	ea52 3503 	orrseq.w	r5, r2, r3, lsl #12
 8001cb0:	ea91 0f03 	teqeq	r1, r3
 8001cb4:	f441 2100 	orrne.w	r1, r1, #524288	; 0x80000
 8001cb8:	bd30      	pop	{r4, r5, pc}
 8001cba:	bf00      	nop

08001cbc <__aeabi_ui2d>:
 8001cbc:	f090 0f00 	teq	r0, #0
 8001cc0:	bf04      	itt	eq
 8001cc2:	2100      	moveq	r1, #0
 8001cc4:	4770      	bxeq	lr
 8001cc6:	b530      	push	{r4, r5, lr}
 8001cc8:	f44f 6480 	mov.w	r4, #1024	; 0x400
 8001ccc:	f104 0432 	add.w	r4, r4, #50	; 0x32
 8001cd0:	f04f 0500 	mov.w	r5, #0
 8001cd4:	f04f 0100 	mov.w	r1, #0
 8001cd8:	e750      	b.n	8001b7c <__adddf3+0x138>
 8001cda:	bf00      	nop

08001cdc <__aeabi_i2d>:
 8001cdc:	f090 0f00 	teq	r0, #0
 8001ce0:	bf04      	itt	eq
 8001ce2:	2100      	moveq	r1, #0
 8001ce4:	4770      	bxeq	lr
 8001ce6:	b530      	push	{r4, r5, lr}
 8001ce8:	f44f 6480 	mov.w	r4, #1024	; 0x400
 8001cec:	f104 0432 	add.w	r4, r4, #50	; 0x32
 8001cf0:	f010 4500 	ands.w	r5, r0, #2147483648	; 0x80000000
 8001cf4:	bf48      	it	mi
 8001cf6:	4240      	negmi	r0, r0
 8001cf8:	f04f 0100 	mov.w	r1, #0
 8001cfc:	e73e      	b.n	8001b7c <__adddf3+0x138>
 8001cfe:	bf00      	nop

08001d00 <__aeabi_f2d>:
 8001d00:	0042      	lsls	r2, r0, #1
 8001d02:	ea4f 01e2 	mov.w	r1, r2, asr #3
 8001d06:	ea4f 0131 	mov.w	r1, r1, rrx
 8001d0a:	ea4f 7002 	mov.w	r0, r2, lsl #28
 8001d0e:	bf1f      	itttt	ne
 8001d10:	f012 437f 	andsne.w	r3, r2, #4278190080	; 0xff000000
 8001d14:	f093 4f7f 	teqne	r3, #4278190080	; 0xff000000
 8001d18:	f081 5160 	eorne.w	r1, r1, #939524096	; 0x38000000
 8001d1c:	4770      	bxne	lr
 8001d1e:	f032 427f 	bics.w	r2, r2, #4278190080	; 0xff000000
 8001d22:	bf08      	it	eq
 8001d24:	4770      	bxeq	lr
 8001d26:	f093 4f7f 	teq	r3, #4278190080	; 0xff000000
 8001d2a:	bf04      	itt	eq
 8001d2c:	f441 2100 	orreq.w	r1, r1, #524288	; 0x80000
 8001d30:	4770      	bxeq	lr
 8001d32:	b530      	push	{r4, r5, lr}
 8001d34:	f44f 7460 	mov.w	r4, #896	; 0x380
 8001d38:	f001 4500 	and.w	r5, r1, #2147483648	; 0x80000000
 8001d3c:	f021 4100 	bic.w	r1, r1, #2147483648	; 0x80000000
 8001d40:	e71c      	b.n	8001b7c <__adddf3+0x138>
 8001d42:	bf00      	nop

08001d44 <__aeabi_ul2d>:
 8001d44:	ea50 0201 	orrs.w	r2, r0, r1
 8001d48:	bf08      	it	eq
 8001d4a:	4770      	bxeq	lr
 8001d4c:	b530      	push	{r4, r5, lr}
 8001d4e:	f04f 0500 	mov.w	r5, #0
 8001d52:	e00a      	b.n	8001d6a <__aeabi_l2d+0x16>

08001d54 <__aeabi_l2d>:
 8001d54:	ea50 0201 	orrs.w	r2, r0, r1
 8001d58:	bf08      	it	eq
 8001d5a:	4770      	bxeq	lr
 8001d5c:	b530      	push	{r4, r5, lr}
 8001d5e:	f011 4500 	ands.w	r5, r1, #2147483648	; 0x80000000
 8001d62:	d502      	bpl.n	8001d6a <__aeabi_l2d+0x16>
 8001d64:	4240      	negs	r0, r0
 8001d66:	eb61 0141 	sbc.w	r1, r1, r1, lsl #1
 8001d6a:	f44f 6480 	mov.w	r4, #1024	; 0x400
 8001d6e:	f104 0432 	add.w	r4, r4, #50	; 0x32
 8001d72:	ea5f 5c91 	movs.w	ip, r1, lsr #22
 8001d76:	f43f aed8 	beq.w	8001b2a <__adddf3+0xe6>
 8001d7a:	f04f 0203 	mov.w	r2, #3
 8001d7e:	ea5f 0cdc 	movs.w	ip, ip, lsr #3
 8001d82:	bf18      	it	ne
 8001d84:	3203      	addne	r2, #3
 8001d86:	ea5f 0cdc 	movs.w	ip, ip, lsr #3
 8001d8a:	bf18      	it	ne
 8001d8c:	3203      	addne	r2, #3
 8001d8e:	eb02 02dc 	add.w	r2, r2, ip, lsr #3
 8001d92:	f1c2 0320 	rsb	r3, r2, #32
 8001d96:	fa00 fc03 	lsl.w	ip, r0, r3
 8001d9a:	fa20 f002 	lsr.w	r0, r0, r2
 8001d9e:	fa01 fe03 	lsl.w	lr, r1, r3
 8001da2:	ea40 000e 	orr.w	r0, r0, lr
 8001da6:	fa21 f102 	lsr.w	r1, r1, r2
 8001daa:	4414      	add	r4, r2
 8001dac:	e6bd      	b.n	8001b2a <__adddf3+0xe6>
 8001dae:	bf00      	nop

08001db0 <__gedf2>:
 8001db0:	f04f 3cff 	mov.w	ip, #4294967295	; 0xffffffff
 8001db4:	e006      	b.n	8001dc4 <__cmpdf2+0x4>
 8001db6:	bf00      	nop

08001db8 <__ledf2>:
 8001db8:	f04f 0c01 	mov.w	ip, #1
 8001dbc:	e002      	b.n	8001dc4 <__cmpdf2+0x4>
 8001dbe:	bf00      	nop

08001dc0 <__cmpdf2>:
 8001dc0:	f04f 0c01 	mov.w	ip, #1
 8001dc4:	f84d cd04 	str.w	ip, [sp, #-4]!
 8001dc8:	ea4f 0c41 	mov.w	ip, r1, lsl #1
 8001dcc:	ea7f 5c6c 	mvns.w	ip, ip, asr #21
 8001dd0:	ea4f 0c43 	mov.w	ip, r3, lsl #1
 8001dd4:	bf18      	it	ne
 8001dd6:	ea7f 5c6c 	mvnsne.w	ip, ip, asr #21
 8001dda:	d01b      	beq.n	8001e14 <__cmpdf2+0x54>
 8001ddc:	b001      	add	sp, #4
 8001dde:	ea50 0c41 	orrs.w	ip, r0, r1, lsl #1
 8001de2:	bf0c      	ite	eq
 8001de4:	ea52 0c43 	orrseq.w	ip, r2, r3, lsl #1
 8001de8:	ea91 0f03 	teqne	r1, r3
 8001dec:	bf02      	ittt	eq
 8001dee:	ea90 0f02 	teqeq	r0, r2
 8001df2:	2000      	moveq	r0, #0
 8001df4:	4770      	bxeq	lr
 8001df6:	f110 0f00 	cmn.w	r0, #0
 8001dfa:	ea91 0f03 	teq	r1, r3
 8001dfe:	bf58      	it	pl
 8001e00:	4299      	cmppl	r1, r3
 8001e02:	bf08      	it	eq
 8001e04:	4290      	cmpeq	r0, r2
 8001e06:	bf2c      	ite	cs
 8001e08:	17d8      	asrcs	r0, r3, #31
 8001e0a:	ea6f 70e3 	mvncc.w	r0, r3, asr #31
 8001e0e:	f040 0001 	orr.w	r0, r0, #1
 8001e12:	4770      	bx	lr
 8001e14:	ea4f 0c41 	mov.w	ip, r1, lsl #1
 8001e18:	ea7f 5c6c 	mvns.w	ip, ip, asr #21
 8001e1c:	d102      	bne.n	8001e24 <__cmpdf2+0x64>
 8001e1e:	ea50 3c01 	orrs.w	ip, r0, r1, lsl #12
 8001e22:	d107      	bne.n	8001e34 <__cmpdf2+0x74>
 8001e24:	ea4f 0c43 	mov.w	ip, r3, lsl #1
 8001e28:	ea7f 5c6c 	mvns.w	ip, ip, asr #21
 8001e2c:	d1d6      	bne.n	8001ddc <__cmpdf2+0x1c>
 8001e2e:	ea52 3c03 	orrs.w	ip, r2, r3, lsl #12
 8001e32:	d0d3      	beq.n	8001ddc <__cmpdf2+0x1c>
 8001e34:	f85d 0b04 	ldr.w	r0, [sp], #4
 8001e38:	4770      	bx	lr
 8001e3a:	bf00      	nop

08001e3c <__aeabi_cdrcmple>:
 8001e3c:	4684      	mov	ip, r0
 8001e3e:	4610      	mov	r0, r2
 8001e40:	4662      	mov	r2, ip
 8001e42:	468c      	mov	ip, r1
 8001e44:	4619      	mov	r1, r3
 8001e46:	4663      	mov	r3, ip
 8001e48:	e000      	b.n	8001e4c <__aeabi_cdcmpeq>
 8001e4a:	bf00      	nop

08001e4c <__aeabi_cdcmpeq>:
 8001e4c:	b501      	push	{r0, lr}
 8001e4e:	f7ff ffb7 	bl	8001dc0 <__cmpdf2>
 8001e52:	2800      	cmp	r0, #0
 8001e54:	bf48      	it	mi
 8001e56:	f110 0f00 	cmnmi.w	r0, #0
 8001e5a:	bd01      	pop	{r0, pc}

08001e5c <__aeabi_dcmpeq>:
 8001e5c:	f84d ed08 	str.w	lr, [sp, #-8]!
 8001e60:	f7ff fff4 	bl	8001e4c <__aeabi_cdcmpeq>
 8001e64:	bf0c      	ite	eq
 8001e66:	2001      	moveq	r0, #1
 8001e68:	2000      	movne	r0, #0
 8001e6a:	f85d fb08 	ldr.w	pc, [sp], #8
 8001e6e:	bf00      	nop

08001e70 <__aeabi_dcmplt>:
 8001e70:	f84d ed08 	str.w	lr, [sp, #-8]!
 8001e74:	f7ff ffea 	bl	8001e4c <__aeabi_cdcmpeq>
 8001e78:	bf34      	ite	cc
 8001e7a:	2001      	movcc	r0, #1
 8001e7c:	2000      	movcs	r0, #0
 8001e7e:	f85d fb08 	ldr.w	pc, [sp], #8
 8001e82:	bf00      	nop

08001e84 <__aeabi_dcmple>:
 8001e84:	f84d ed08 	str.w	lr, [sp, #-8]!
 8001e88:	f7ff ffe0 	bl	8001e4c <__aeabi_cdcmpeq>
 8001e8c:	bf94      	ite	ls
 8001e8e:	2001      	movls	r0, #1
 8001e90:	2000      	movhi	r0, #0
 8001e92:	f85d fb08 	ldr.w	pc, [sp], #8
 8001e96:	bf00      	nop

08001e98 <__aeabi_dcmpge>:
 8001e98:	f84d ed08 	str.w	lr, [sp, #-8]!
 8001e9c:	f7ff ffce 	bl	8001e3c <__aeabi_cdrcmple>
 8001ea0:	bf94      	ite	ls
 8001ea2:	2001      	movls	r0, #1
 8001ea4:	2000      	movhi	r0, #0
 8001ea6:	f85d fb08 	ldr.w	pc, [sp], #8
 8001eaa:	bf00      	nop

08001eac <__aeabi_dcmpgt>:
 8001eac:	f84d ed08 	str.w	lr, [sp, #-8]!
 8001eb0:	f7ff ffc4 	bl	8001e3c <__aeabi_cdrcmple>
 8001eb4:	bf34      	ite	cc
 8001eb6:	2001      	movcc	r0, #1
 8001eb8:	2000      	movcs	r0, #0
 8001eba:	f85d fb08 	ldr.w	pc, [sp], #8
 8001ebe:	bf00      	nop

08001ec0 <__aeabi_d2iz>:
 8001ec0:	ea4f 0241 	mov.w	r2, r1, lsl #1
 8001ec4:	f512 1200 	adds.w	r2, r2, #2097152	; 0x200000
 8001ec8:	d215      	bcs.n	8001ef6 <__aeabi_d2iz+0x36>
 8001eca:	d511      	bpl.n	8001ef0 <__aeabi_d2iz+0x30>
 8001ecc:	f46f 7378 	mvn.w	r3, #992	; 0x3e0
 8001ed0:	ebb3 5262 	subs.w	r2, r3, r2, asr #21
 8001ed4:	d912      	bls.n	8001efc <__aeabi_d2iz+0x3c>
 8001ed6:	ea4f 23c1 	mov.w	r3, r1, lsl #11
 8001eda:	f043 4300 	orr.w	r3, r3, #2147483648	; 0x80000000
 8001ede:	ea43 5350 	orr.w	r3, r3, r0, lsr #21
 8001ee2:	f011 4f00 	tst.w	r1, #2147483648	; 0x80000000
 8001ee6:	fa23 f002 	lsr.w	r0, r3, r2
 8001eea:	bf18      	it	ne
 8001eec:	4240      	negne	r0, r0
 8001eee:	4770      	bx	lr
 8001ef0:	f04f 0000 	mov.w	r0, #0
 8001ef4:	4770      	bx	lr
 8001ef6:	ea50 3001 	orrs.w	r0, r0, r1, lsl #12
 8001efa:	d105      	bne.n	8001f08 <__aeabi_d2iz+0x48>
 8001efc:	f011 4000 	ands.w	r0, r1, #2147483648	; 0x80000000
 8001f00:	bf08      	it	eq
 8001f02:	f06f 4000 	mvneq.w	r0, #2147483648	; 0x80000000
 8001f06:	4770      	bx	lr
 8001f08:	f04f 0000 	mov.w	r0, #0
 8001f0c:	4770      	bx	lr
 8001f0e:	bf00      	nop

08001f10 <__aeabi_d2f>:
 8001f10:	ea4f 0241 	mov.w	r2, r1, lsl #1
 8001f14:	f1b2 43e0 	subs.w	r3, r2, #1879048192	; 0x70000000
 8001f18:	bf24      	itt	cs
 8001f1a:	f5b3 1c00 	subscs.w	ip, r3, #2097152	; 0x200000
 8001f1e:	f1dc 5cfe 	rsbscs	ip, ip, #532676608	; 0x1fc00000
 8001f22:	d90d      	bls.n	8001f40 <__aeabi_d2f+0x30>
 8001f24:	f001 4c00 	and.w	ip, r1, #2147483648	; 0x80000000
 8001f28:	ea4f 02c0 	mov.w	r2, r0, lsl #3
 8001f2c:	ea4c 7050 	orr.w	r0, ip, r0, lsr #29
 8001f30:	f1b2 4f00 	cmp.w	r2, #2147483648	; 0x80000000
 8001f34:	eb40 0083 	adc.w	r0, r0, r3, lsl #2
 8001f38:	bf08      	it	eq
 8001f3a:	f020 0001 	biceq.w	r0, r0, #1
 8001f3e:	4770      	bx	lr
 8001f40:	f011 4f80 	tst.w	r1, #1073741824	; 0x40000000
 8001f44:	d121      	bne.n	8001f8a <__aeabi_d2f+0x7a>
 8001f46:	f113 7238 	adds.w	r2, r3, #48234496	; 0x2e00000
 8001f4a:	bfbc      	itt	lt
 8001f4c:	f001 4000 	andlt.w	r0, r1, #2147483648	; 0x80000000
 8001f50:	4770      	bxlt	lr
 8001f52:	f441 1180 	orr.w	r1, r1, #1048576	; 0x100000
 8001f56:	ea4f 5252 	mov.w	r2, r2, lsr #21
 8001f5a:	f1c2 0218 	rsb	r2, r2, #24
 8001f5e:	f1c2 0c20 	rsb	ip, r2, #32
 8001f62:	fa10 f30c 	lsls.w	r3, r0, ip
 8001f66:	fa20 f002 	lsr.w	r0, r0, r2
 8001f6a:	bf18      	it	ne
 8001f6c:	f040 0001 	orrne.w	r0, r0, #1
 8001f70:	ea4f 23c1 	mov.w	r3, r1, lsl #11
 8001f74:	ea4f 23d3 	mov.w	r3, r3, lsr #11
 8001f78:	fa03 fc0c 	lsl.w	ip, r3, ip
 8001f7c:	ea40 000c 	orr.w	r0, r0, ip
 8001f80:	fa23 f302 	lsr.w	r3, r3, r2
 8001f84:	ea4f 0343 	mov.w	r3, r3, lsl #1
 8001f88:	e7cc      	b.n	8001f24 <__aeabi_d2f+0x14>
 8001f8a:	ea7f 5362 	mvns.w	r3, r2, asr #21
 8001f8e:	d107      	bne.n	8001fa0 <__aeabi_d2f+0x90>
 8001f90:	ea50 3301 	orrs.w	r3, r0, r1, lsl #12
 8001f94:	bf1e      	ittt	ne
 8001f96:	f04f 40fe 	movne.w	r0, #2130706432	; 0x7f000000
 8001f9a:	f440 0040 	orrne.w	r0, r0, #12582912	; 0xc00000
 8001f9e:	4770      	bxne	lr
 8001fa0:	f001 4000 	and.w	r0, r1, #2147483648	; 0x80000000
 8001fa4:	f040 40fe 	orr.w	r0, r0, #2130706432	; 0x7f000000
 8001fa8:	f440 0000 	orr.w	r0, r0, #8388608	; 0x800000
 8001fac:	4770      	bx	lr
 8001fae:	bf00      	nop

08001fb0 <__aeabi_frsub>:
 8001fb0:	f080 4000 	eor.w	r0, r0, #2147483648	; 0x80000000
 8001fb4:	e002      	b.n	8001fbc <__addsf3>
 8001fb6:	bf00      	nop

08001fb8 <__aeabi_fsub>:
 8001fb8:	f081 4100 	eor.w	r1, r1, #2147483648	; 0x80000000

08001fbc <__addsf3>:
 8001fbc:	0042      	lsls	r2, r0, #1
 8001fbe:	bf1f      	itttt	ne
 8001fc0:	ea5f 0341 	movsne.w	r3, r1, lsl #1
 8001fc4:	ea92 0f03 	teqne	r2, r3
 8001fc8:	ea7f 6c22 	mvnsne.w	ip, r2, asr #24
 8001fcc:	ea7f 6c23 	mvnsne.w	ip, r3, asr #24
 8001fd0:	d06a      	beq.n	80020a8 <__addsf3+0xec>
 8001fd2:	ea4f 6212 	mov.w	r2, r2, lsr #24
 8001fd6:	ebd2 6313 	rsbs	r3, r2, r3, lsr #24
 8001fda:	bfc1      	itttt	gt
 8001fdc:	18d2      	addgt	r2, r2, r3
 8001fde:	4041      	eorgt	r1, r0
 8001fe0:	4048      	eorgt	r0, r1
 8001fe2:	4041      	eorgt	r1, r0
 8001fe4:	bfb8      	it	lt
 8001fe6:	425b      	neglt	r3, r3
 8001fe8:	2b19      	cmp	r3, #25
 8001fea:	bf88      	it	hi
 8001fec:	4770      	bxhi	lr
 8001fee:	f010 4f00 	tst.w	r0, #2147483648	; 0x80000000
 8001ff2:	f440 0000 	orr.w	r0, r0, #8388608	; 0x800000
 8001ff6:	f020 407f 	bic.w	r0, r0, #4278190080	; 0xff000000
 8001ffa:	bf18      	it	ne
 8001ffc:	4240      	negne	r0, r0
 8001ffe:	f011 4f00 	tst.w	r1, #2147483648	; 0x80000000
 8002002:	f441 0100 	orr.w	r1, r1, #8388608	; 0x800000
 8002006:	f021 417f 	bic.w	r1, r1, #4278190080	; 0xff000000
 800200a:	bf18      	it	ne
 800200c:	4249      	negne	r1, r1
 800200e:	ea92 0f03 	teq	r2, r3
 8002012:	d03f      	beq.n	8002094 <__addsf3+0xd8>
 8002014:	f1a2 0201 	sub.w	r2, r2, #1
 8002018:	fa41 fc03 	asr.w	ip, r1, r3
 800201c:	eb10 000c 	adds.w	r0, r0, ip
 8002020:	f1c3 0320 	rsb	r3, r3, #32
 8002024:	fa01 f103 	lsl.w	r1, r1, r3
 8002028:	f000 4300 	and.w	r3, r0, #2147483648	; 0x80000000
 800202c:	d502      	bpl.n	8002034 <__addsf3+0x78>
 800202e:	4249      	negs	r1, r1
 8002030:	eb60 0040 	sbc.w	r0, r0, r0, lsl #1
 8002034:	f5b0 0f00 	cmp.w	r0, #8388608	; 0x800000
 8002038:	d313      	bcc.n	8002062 <__addsf3+0xa6>
 800203a:	f1b0 7f80 	cmp.w	r0, #16777216	; 0x1000000
 800203e:	d306      	bcc.n	800204e <__addsf3+0x92>
 8002040:	0840      	lsrs	r0, r0, #1
 8002042:	ea4f 0131 	mov.w	r1, r1, rrx
 8002046:	f102 0201 	add.w	r2, r2, #1
 800204a:	2afe      	cmp	r2, #254	; 0xfe
 800204c:	d251      	bcs.n	80020f2 <__addsf3+0x136>
 800204e:	f1b1 4f00 	cmp.w	r1, #2147483648	; 0x80000000
 8002052:	eb40 50c2 	adc.w	r0, r0, r2, lsl #23
 8002056:	bf08      	it	eq
 8002058:	f020 0001 	biceq.w	r0, r0, #1
 800205c:	ea40 0003 	orr.w	r0, r0, r3
 8002060:	4770      	bx	lr
 8002062:	0049      	lsls	r1, r1, #1
 8002064:	eb40 0000 	adc.w	r0, r0, r0
 8002068:	3a01      	subs	r2, #1
 800206a:	bf28      	it	cs
 800206c:	f5b0 0f00 	cmpcs.w	r0, #8388608	; 0x800000
 8002070:	d2ed      	bcs.n	800204e <__addsf3+0x92>
 8002072:	fab0 fc80 	clz	ip, r0
 8002076:	f1ac 0c08 	sub.w	ip, ip, #8
 800207a:	ebb2 020c 	subs.w	r2, r2, ip
 800207e:	fa00 f00c 	lsl.w	r0, r0, ip
 8002082:	bfaa      	itet	ge
 8002084:	eb00 50c2 	addge.w	r0, r0, r2, lsl #23
 8002088:	4252      	neglt	r2, r2
 800208a:	4318      	orrge	r0, r3
 800208c:	bfbc      	itt	lt
 800208e:	40d0      	lsrlt	r0, r2
 8002090:	4318      	orrlt	r0, r3
 8002092:	4770      	bx	lr
 8002094:	f092 0f00 	teq	r2, #0
 8002098:	f481 0100 	eor.w	r1, r1, #8388608	; 0x800000
 800209c:	bf06      	itte	eq
 800209e:	f480 0000 	eoreq.w	r0, r0, #8388608	; 0x800000
 80020a2:	3201      	addeq	r2, #1
 80020a4:	3b01      	subne	r3, #1
 80020a6:	e7b5      	b.n	8002014 <__addsf3+0x58>
 80020a8:	ea4f 0341 	mov.w	r3, r1, lsl #1
 80020ac:	ea7f 6c22 	mvns.w	ip, r2, asr #24
 80020b0:	bf18      	it	ne
 80020b2:	ea7f 6c23 	mvnsne.w	ip, r3, asr #24
 80020b6:	d021      	beq.n	80020fc <__addsf3+0x140>
 80020b8:	ea92 0f03 	teq	r2, r3
 80020bc:	d004      	beq.n	80020c8 <__addsf3+0x10c>
 80020be:	f092 0f00 	teq	r2, #0
 80020c2:	bf08      	it	eq
 80020c4:	4608      	moveq	r0, r1
 80020c6:	4770      	bx	lr
 80020c8:	ea90 0f01 	teq	r0, r1
 80020cc:	bf1c      	itt	ne
 80020ce:	2000      	movne	r0, #0
 80020d0:	4770      	bxne	lr
 80020d2:	f012 4f7f 	tst.w	r2, #4278190080	; 0xff000000
 80020d6:	d104      	bne.n	80020e2 <__addsf3+0x126>
 80020d8:	0040      	lsls	r0, r0, #1
 80020da:	bf28      	it	cs
 80020dc:	f040 4000 	orrcs.w	r0, r0, #2147483648	; 0x80000000
 80020e0:	4770      	bx	lr
 80020e2:	f112 7200 	adds.w	r2, r2, #33554432	; 0x2000000
 80020e6:	bf3c      	itt	cc
 80020e8:	f500 0000 	addcc.w	r0, r0, #8388608	; 0x800000
 80020ec:	4770      	bxcc	lr
 80020ee:	f000 4300 	and.w	r3, r0, #2147483648	; 0x80000000
 80020f2:	f043 40fe 	orr.w	r0, r3, #2130706432	; 0x7f000000
 80020f6:	f440 0000 	orr.w	r0, r0, #8388608	; 0x800000
 80020fa:	4770      	bx	lr
 80020fc:	ea7f 6222 	mvns.w	r2, r2, asr #24
 8002100:	bf16      	itet	ne
 8002102:	4608      	movne	r0, r1
 8002104:	ea7f 6323 	mvnseq.w	r3, r3, asr #24
 8002108:	4601      	movne	r1, r0
 800210a:	0242      	lsls	r2, r0, #9
 800210c:	bf06      	itte	eq
 800210e:	ea5f 2341 	movseq.w	r3, r1, lsl #9
 8002112:	ea90 0f01 	teqeq	r0, r1
 8002116:	f440 0080 	orrne.w	r0, r0, #4194304	; 0x400000
 800211a:	4770      	bx	lr

0800211c <__aeabi_ui2f>:
 800211c:	f04f 0300 	mov.w	r3, #0
 8002120:	e004      	b.n	800212c <__aeabi_i2f+0x8>
 8002122:	bf00      	nop

08002124 <__aeabi_i2f>:
 8002124:	f010 4300 	ands.w	r3, r0, #2147483648	; 0x80000000
 8002128:	bf48      	it	mi
 800212a:	4240      	negmi	r0, r0
 800212c:	ea5f 0c00 	movs.w	ip, r0
 8002130:	bf08      	it	eq
 8002132:	4770      	bxeq	lr
 8002134:	f043 4396 	orr.w	r3, r3, #1258291200	; 0x4b000000
 8002138:	4601      	mov	r1, r0
 800213a:	f04f 0000 	mov.w	r0, #0
 800213e:	e01c      	b.n	800217a <__aeabi_l2f+0x2a>

08002140 <__aeabi_ul2f>:
 8002140:	ea50 0201 	orrs.w	r2, r0, r1
 8002144:	bf08      	it	eq
 8002146:	4770      	bxeq	lr
 8002148:	f04f 0300 	mov.w	r3, #0
 800214c:	e00a      	b.n	8002164 <__aeabi_l2f+0x14>
 800214e:	bf00      	nop

08002150 <__aeabi_l2f>:
 8002150:	ea50 0201 	orrs.w	r2, r0, r1
 8002154:	bf08      	it	eq
 8002156:	4770      	bxeq	lr
 8002158:	f011 4300 	ands.w	r3, r1, #2147483648	; 0x80000000
 800215c:	d502      	bpl.n	8002164 <__aeabi_l2f+0x14>
 800215e:	4240      	negs	r0, r0
 8002160:	eb61 0141 	sbc.w	r1, r1, r1, lsl #1
 8002164:	ea5f 0c01 	movs.w	ip, r1
 8002168:	bf02      	ittt	eq
 800216a:	4684      	moveq	ip, r0
 800216c:	4601      	moveq	r1, r0
 800216e:	2000      	moveq	r0, #0
 8002170:	f043 43b6 	orr.w	r3, r3, #1526726656	; 0x5b000000
 8002174:	bf08      	it	eq
 8002176:	f1a3 5380 	subeq.w	r3, r3, #268435456	; 0x10000000
 800217a:	f5a3 0300 	sub.w	r3, r3, #8388608	; 0x800000
 800217e:	fabc f28c 	clz	r2, ip
 8002182:	3a08      	subs	r2, #8
 8002184:	eba3 53c2 	sub.w	r3, r3, r2, lsl #23
 8002188:	db10      	blt.n	80021ac <__aeabi_l2f+0x5c>
 800218a:	fa01 fc02 	lsl.w	ip, r1, r2
 800218e:	4463      	add	r3, ip
 8002190:	fa00 fc02 	lsl.w	ip, r0, r2
 8002194:	f1c2 0220 	rsb	r2, r2, #32
 8002198:	f1bc 4f00 	cmp.w	ip, #2147483648	; 0x80000000
 800219c:	fa20 f202 	lsr.w	r2, r0, r2
 80021a0:	eb43 0002 	adc.w	r0, r3, r2
 80021a4:	bf08      	it	eq
 80021a6:	f020 0001 	biceq.w	r0, r0, #1
 80021aa:	4770      	bx	lr
 80021ac:	f102 0220 	add.w	r2, r2, #32
 80021b0:	fa01 fc02 	lsl.w	ip, r1, r2
 80021b4:	f1c2 0220 	rsb	r2, r2, #32
 80021b8:	ea50 004c 	orrs.w	r0, r0, ip, lsl #1
 80021bc:	fa21 f202 	lsr.w	r2, r1, r2
 80021c0:	eb43 0002 	adc.w	r0, r3, r2
 80021c4:	bf08      	it	eq
 80021c6:	ea20 70dc 	biceq.w	r0, r0, ip, lsr #31
 80021ca:	4770      	bx	lr

080021cc <__aeabi_fmul>:
 80021cc:	f04f 0cff 	mov.w	ip, #255	; 0xff
 80021d0:	ea1c 52d0 	ands.w	r2, ip, r0, lsr #23
 80021d4:	bf1e      	ittt	ne
 80021d6:	ea1c 53d1 	andsne.w	r3, ip, r1, lsr #23
 80021da:	ea92 0f0c 	teqne	r2, ip
 80021de:	ea93 0f0c 	teqne	r3, ip
 80021e2:	d06f      	beq.n	80022c4 <__aeabi_fmul+0xf8>
 80021e4:	441a      	add	r2, r3
 80021e6:	ea80 0c01 	eor.w	ip, r0, r1
 80021ea:	0240      	lsls	r0, r0, #9
 80021ec:	bf18      	it	ne
 80021ee:	ea5f 2141 	movsne.w	r1, r1, lsl #9
 80021f2:	d01e      	beq.n	8002232 <__aeabi_fmul+0x66>
 80021f4:	f04f 6300 	mov.w	r3, #134217728	; 0x8000000
 80021f8:	ea43 1050 	orr.w	r0, r3, r0, lsr #5
 80021fc:	ea43 1151 	orr.w	r1, r3, r1, lsr #5
 8002200:	fba0 3101 	umull	r3, r1, r0, r1
 8002204:	f00c 4000 	and.w	r0, ip, #2147483648	; 0x80000000
 8002208:	f5b1 0f00 	cmp.w	r1, #8388608	; 0x800000
 800220c:	bf3e      	ittt	cc
 800220e:	0049      	lslcc	r1, r1, #1
 8002210:	ea41 71d3 	orrcc.w	r1, r1, r3, lsr #31
 8002214:	005b      	lslcc	r3, r3, #1
 8002216:	ea40 0001 	orr.w	r0, r0, r1
 800221a:	f162 027f 	sbc.w	r2, r2, #127	; 0x7f
 800221e:	2afd      	cmp	r2, #253	; 0xfd
 8002220:	d81d      	bhi.n	800225e <__aeabi_fmul+0x92>
 8002222:	f1b3 4f00 	cmp.w	r3, #2147483648	; 0x80000000
 8002226:	eb40 50c2 	adc.w	r0, r0, r2, lsl #23
 800222a:	bf08      	it	eq
 800222c:	f020 0001 	biceq.w	r0, r0, #1
 8002230:	4770      	bx	lr
 8002232:	f090 0f00 	teq	r0, #0
 8002236:	f00c 4c00 	and.w	ip, ip, #2147483648	; 0x80000000
 800223a:	bf08      	it	eq
 800223c:	0249      	lsleq	r1, r1, #9
 800223e:	ea4c 2050 	orr.w	r0, ip, r0, lsr #9
 8002242:	ea40 2051 	orr.w	r0, r0, r1, lsr #9
 8002246:	3a7f      	subs	r2, #127	; 0x7f
 8002248:	bfc2      	ittt	gt
 800224a:	f1d2 03ff 	rsbsgt	r3, r2, #255	; 0xff
 800224e:	ea40 50c2 	orrgt.w	r0, r0, r2, lsl #23
 8002252:	4770      	bxgt	lr
 8002254:	f440 0000 	orr.w	r0, r0, #8388608	; 0x800000
 8002258:	f04f 0300 	mov.w	r3, #0
 800225c:	3a01      	subs	r2, #1
 800225e:	dc5d      	bgt.n	800231c <__aeabi_fmul+0x150>
 8002260:	f112 0f19 	cmn.w	r2, #25
 8002264:	bfdc      	itt	le
 8002266:	f000 4000 	andle.w	r0, r0, #2147483648	; 0x80000000
 800226a:	4770      	bxle	lr
 800226c:	f1c2 0200 	rsb	r2, r2, #0
 8002270:	0041      	lsls	r1, r0, #1
 8002272:	fa21 f102 	lsr.w	r1, r1, r2
 8002276:	f1c2 0220 	rsb	r2, r2, #32
 800227a:	fa00 fc02 	lsl.w	ip, r0, r2
 800227e:	ea5f 0031 	movs.w	r0, r1, rrx
 8002282:	f140 0000 	adc.w	r0, r0, #0
 8002286:	ea53 034c 	orrs.w	r3, r3, ip, lsl #1
 800228a:	bf08      	it	eq
 800228c:	ea20 70dc 	biceq.w	r0, r0, ip, lsr #31
 8002290:	4770      	bx	lr
 8002292:	f092 0f00 	teq	r2, #0
 8002296:	f000 4c00 	and.w	ip, r0, #2147483648	; 0x80000000
 800229a:	bf02      	ittt	eq
 800229c:	0040      	lsleq	r0, r0, #1
 800229e:	f410 0f00 	tsteq.w	r0, #8388608	; 0x800000
 80022a2:	3a01      	subeq	r2, #1
 80022a4:	d0f9      	beq.n	800229a <__aeabi_fmul+0xce>
 80022a6:	ea40 000c 	orr.w	r0, r0, ip
 80022aa:	f093 0f00 	teq	r3, #0
 80022ae:	f001 4c00 	and.w	ip, r1, #2147483648	; 0x80000000
 80022b2:	bf02      	ittt	eq
 80022b4:	0049      	lsleq	r1, r1, #1
 80022b6:	f411 0f00 	tsteq.w	r1, #8388608	; 0x800000
 80022ba:	3b01      	subeq	r3, #1
 80022bc:	d0f9      	beq.n	80022b2 <__aeabi_fmul+0xe6>
 80022be:	ea41 010c 	orr.w	r1, r1, ip
 80022c2:	e78f      	b.n	80021e4 <__aeabi_fmul+0x18>
 80022c4:	ea0c 53d1 	and.w	r3, ip, r1, lsr #23
 80022c8:	ea92 0f0c 	teq	r2, ip
 80022cc:	bf18      	it	ne
 80022ce:	ea93 0f0c 	teqne	r3, ip
 80022d2:	d00a      	beq.n	80022ea <__aeabi_fmul+0x11e>
 80022d4:	f030 4c00 	bics.w	ip, r0, #2147483648	; 0x80000000
 80022d8:	bf18      	it	ne
 80022da:	f031 4c00 	bicsne.w	ip, r1, #2147483648	; 0x80000000
 80022de:	d1d8      	bne.n	8002292 <__aeabi_fmul+0xc6>
 80022e0:	ea80 0001 	eor.w	r0, r0, r1
 80022e4:	f000 4000 	and.w	r0, r0, #2147483648	; 0x80000000
 80022e8:	4770      	bx	lr
 80022ea:	f090 0f00 	teq	r0, #0
 80022ee:	bf17      	itett	ne
 80022f0:	f090 4f00 	teqne	r0, #2147483648	; 0x80000000
 80022f4:	4608      	moveq	r0, r1
 80022f6:	f091 0f00 	teqne	r1, #0
 80022fa:	f091 4f00 	teqne	r1, #2147483648	; 0x80000000
 80022fe:	d014      	beq.n	800232a <__aeabi_fmul+0x15e>
 8002300:	ea92 0f0c 	teq	r2, ip
 8002304:	d101      	bne.n	800230a <__aeabi_fmul+0x13e>
 8002306:	0242      	lsls	r2, r0, #9
 8002308:	d10f      	bne.n	800232a <__aeabi_fmul+0x15e>
 800230a:	ea93 0f0c 	teq	r3, ip
 800230e:	d103      	bne.n	8002318 <__aeabi_fmul+0x14c>
 8002310:	024b      	lsls	r3, r1, #9
 8002312:	bf18      	it	ne
 8002314:	4608      	movne	r0, r1
 8002316:	d108      	bne.n	800232a <__aeabi_fmul+0x15e>
 8002318:	ea80 0001 	eor.w	r0, r0, r1
 800231c:	f000 4000 	and.w	r0, r0, #2147483648	; 0x80000000
 8002320:	f040 40fe 	orr.w	r0, r0, #2130706432	; 0x7f000000
 8002324:	f440 0000 	orr.w	r0, r0, #8388608	; 0x800000
 8002328:	4770      	bx	lr
 800232a:	f040 40fe 	orr.w	r0, r0, #2130706432	; 0x7f000000
 800232e:	f440 0040 	orr.w	r0, r0, #12582912	; 0xc00000
 8002332:	4770      	bx	lr

08002334 <__aeabi_fdiv>:
 8002334:	f04f 0cff 	mov.w	ip, #255	; 0xff
 8002338:	ea1c 52d0 	ands.w	r2, ip, r0, lsr #23
 800233c:	bf1e      	ittt	ne
 800233e:	ea1c 53d1 	andsne.w	r3, ip, r1, lsr #23
 8002342:	ea92 0f0c 	teqne	r2, ip
 8002346:	ea93 0f0c 	teqne	r3, ip
 800234a:	d069      	beq.n	8002420 <__aeabi_fdiv+0xec>
 800234c:	eba2 0203 	sub.w	r2, r2, r3
 8002350:	ea80 0c01 	eor.w	ip, r0, r1
 8002354:	0249      	lsls	r1, r1, #9
 8002356:	ea4f 2040 	mov.w	r0, r0, lsl #9
 800235a:	d037      	beq.n	80023cc <__aeabi_fdiv+0x98>
 800235c:	f04f 5380 	mov.w	r3, #268435456	; 0x10000000
 8002360:	ea43 1111 	orr.w	r1, r3, r1, lsr #4
 8002364:	ea43 1310 	orr.w	r3, r3, r0, lsr #4
 8002368:	f00c 4000 	and.w	r0, ip, #2147483648	; 0x80000000
 800236c:	428b      	cmp	r3, r1
 800236e:	bf38      	it	cc
 8002370:	005b      	lslcc	r3, r3, #1
 8002372:	f142 027d 	adc.w	r2, r2, #125	; 0x7d
 8002376:	f44f 0c00 	mov.w	ip, #8388608	; 0x800000
 800237a:	428b      	cmp	r3, r1
 800237c:	bf24      	itt	cs
 800237e:	1a5b      	subcs	r3, r3, r1
 8002380:	ea40 000c 	orrcs.w	r0, r0, ip
 8002384:	ebb3 0f51 	cmp.w	r3, r1, lsr #1
 8002388:	bf24      	itt	cs
 800238a:	eba3 0351 	subcs.w	r3, r3, r1, lsr #1
 800238e:	ea40 005c 	orrcs.w	r0, r0, ip, lsr #1
 8002392:	ebb3 0f91 	cmp.w	r3, r1, lsr #2
 8002396:	bf24      	itt	cs
 8002398:	eba3 0391 	subcs.w	r3, r3, r1, lsr #2
 800239c:	ea40 009c 	orrcs.w	r0, r0, ip, lsr #2
 80023a0:	ebb3 0fd1 	cmp.w	r3, r1, lsr #3
 80023a4:	bf24      	itt	cs
 80023a6:	eba3 03d1 	subcs.w	r3, r3, r1, lsr #3
 80023aa:	ea40 00dc 	orrcs.w	r0, r0, ip, lsr #3
 80023ae:	011b      	lsls	r3, r3, #4
 80023b0:	bf18      	it	ne
 80023b2:	ea5f 1c1c 	movsne.w	ip, ip, lsr #4
 80023b6:	d1e0      	bne.n	800237a <__aeabi_fdiv+0x46>
 80023b8:	2afd      	cmp	r2, #253	; 0xfd
 80023ba:	f63f af50 	bhi.w	800225e <__aeabi_fmul+0x92>
 80023be:	428b      	cmp	r3, r1
 80023c0:	eb40 50c2 	adc.w	r0, r0, r2, lsl #23
 80023c4:	bf08      	it	eq
 80023c6:	f020 0001 	biceq.w	r0, r0, #1
 80023ca:	4770      	bx	lr
 80023cc:	f00c 4c00 	and.w	ip, ip, #2147483648	; 0x80000000
 80023d0:	ea4c 2050 	orr.w	r0, ip, r0, lsr #9
 80023d4:	327f      	adds	r2, #127	; 0x7f
 80023d6:	bfc2      	ittt	gt
 80023d8:	f1d2 03ff 	rsbsgt	r3, r2, #255	; 0xff
 80023dc:	ea40 50c2 	orrgt.w	r0, r0, r2, lsl #23
 80023e0:	4770      	bxgt	lr
 80023e2:	f440 0000 	orr.w	r0, r0, #8388608	; 0x800000
 80023e6:	f04f 0300 	mov.w	r3, #0
 80023ea:	3a01      	subs	r2, #1
 80023ec:	e737      	b.n	800225e <__aeabi_fmul+0x92>
 80023ee:	f092 0f00 	teq	r2, #0
 80023f2:	f000 4c00 	and.w	ip, r0, #2147483648	; 0x80000000
 80023f6:	bf02      	ittt	eq
 80023f8:	0040      	lsleq	r0, r0, #1
 80023fa:	f410 0f00 	tsteq.w	r0, #8388608	; 0x800000
 80023fe:	3a01      	subeq	r2, #1
 8002400:	d0f9      	beq.n	80023f6 <__aeabi_fdiv+0xc2>
 8002402:	ea40 000c 	orr.w	r0, r0, ip
 8002406:	f093 0f00 	teq	r3, #0
 800240a:	f001 4c00 	and.w	ip, r1, #2147483648	; 0x80000000
 800240e:	bf02      	ittt	eq
 8002410:	0049      	lsleq	r1, r1, #1
 8002412:	f411 0f00 	tsteq.w	r1, #8388608	; 0x800000
 8002416:	3b01      	subeq	r3, #1
 8002418:	d0f9      	beq.n	800240e <__aeabi_fdiv+0xda>
 800241a:	ea41 010c 	orr.w	r1, r1, ip
 800241e:	e795      	b.n	800234c <__aeabi_fdiv+0x18>
 8002420:	ea0c 53d1 	and.w	r3, ip, r1, lsr #23
 8002424:	ea92 0f0c 	teq	r2, ip
 8002428:	d108      	bne.n	800243c <__aeabi_fdiv+0x108>
 800242a:	0242      	lsls	r2, r0, #9
 800242c:	f47f af7d 	bne.w	800232a <__aeabi_fmul+0x15e>
 8002430:	ea93 0f0c 	teq	r3, ip
 8002434:	f47f af70 	bne.w	8002318 <__aeabi_fmul+0x14c>
 8002438:	4608      	mov	r0, r1
 800243a:	e776      	b.n	800232a <__aeabi_fmul+0x15e>
 800243c:	ea93 0f0c 	teq	r3, ip
 8002440:	d104      	bne.n	800244c <__aeabi_fdiv+0x118>
 8002442:	024b      	lsls	r3, r1, #9
 8002444:	f43f af4c 	beq.w	80022e0 <__aeabi_fmul+0x114>
 8002448:	4608      	mov	r0, r1
 800244a:	e76e      	b.n	800232a <__aeabi_fmul+0x15e>
 800244c:	f030 4c00 	bics.w	ip, r0, #2147483648	; 0x80000000
 8002450:	bf18      	it	ne
 8002452:	f031 4c00 	bicsne.w	ip, r1, #2147483648	; 0x80000000
 8002456:	d1ca      	bne.n	80023ee <__aeabi_fdiv+0xba>
 8002458:	f030 4200 	bics.w	r2, r0, #2147483648	; 0x80000000
 800245c:	f47f af5c 	bne.w	8002318 <__aeabi_fmul+0x14c>
 8002460:	f031 4300 	bics.w	r3, r1, #2147483648	; 0x80000000
 8002464:	f47f af3c 	bne.w	80022e0 <__aeabi_fmul+0x114>
 8002468:	e75f      	b.n	800232a <__aeabi_fmul+0x15e>
 800246a:	bf00      	nop

0800246c <__gesf2>:
 800246c:	f04f 3cff 	mov.w	ip, #4294967295	; 0xffffffff
 8002470:	e006      	b.n	8002480 <__cmpsf2+0x4>
 8002472:	bf00      	nop

08002474 <__lesf2>:
 8002474:	f04f 0c01 	mov.w	ip, #1
 8002478:	e002      	b.n	8002480 <__cmpsf2+0x4>
 800247a:	bf00      	nop

0800247c <__cmpsf2>:
 800247c:	f04f 0c01 	mov.w	ip, #1
 8002480:	f84d cd04 	str.w	ip, [sp, #-4]!
 8002484:	ea4f 0240 	mov.w	r2, r0, lsl #1
 8002488:	ea4f 0341 	mov.w	r3, r1, lsl #1
 800248c:	ea7f 6c22 	mvns.w	ip, r2, asr #24
 8002490:	bf18      	it	ne
 8002492:	ea7f 6c23 	mvnsne.w	ip, r3, asr #24
 8002496:	d011      	beq.n	80024bc <__cmpsf2+0x40>
 8002498:	b001      	add	sp, #4
 800249a:	ea52 0c53 	orrs.w	ip, r2, r3, lsr #1
 800249e:	bf18      	it	ne
 80024a0:	ea90 0f01 	teqne	r0, r1
 80024a4:	bf58      	it	pl
 80024a6:	ebb2 0003 	subspl.w	r0, r2, r3
 80024aa:	bf88      	it	hi
 80024ac:	17c8      	asrhi	r0, r1, #31
 80024ae:	bf38      	it	cc
 80024b0:	ea6f 70e1 	mvncc.w	r0, r1, asr #31
 80024b4:	bf18      	it	ne
 80024b6:	f040 0001 	orrne.w	r0, r0, #1
 80024ba:	4770      	bx	lr
 80024bc:	ea7f 6c22 	mvns.w	ip, r2, asr #24
 80024c0:	d102      	bne.n	80024c8 <__cmpsf2+0x4c>
 80024c2:	ea5f 2c40 	movs.w	ip, r0, lsl #9
 80024c6:	d105      	bne.n	80024d4 <__cmpsf2+0x58>
 80024c8:	ea7f 6c23 	mvns.w	ip, r3, asr #24
 80024cc:	d1e4      	bne.n	8002498 <__cmpsf2+0x1c>
 80024ce:	ea5f 2c41 	movs.w	ip, r1, lsl #9
 80024d2:	d0e1      	beq.n	8002498 <__cmpsf2+0x1c>
 80024d4:	f85d 0b04 	ldr.w	r0, [sp], #4
 80024d8:	4770      	bx	lr
 80024da:	bf00      	nop

080024dc <__aeabi_cfrcmple>:
 80024dc:	4684      	mov	ip, r0
 80024de:	4608      	mov	r0, r1
 80024e0:	4661      	mov	r1, ip
 80024e2:	e7ff      	b.n	80024e4 <__aeabi_cfcmpeq>

080024e4 <__aeabi_cfcmpeq>:
 80024e4:	b50f      	push	{r0, r1, r2, r3, lr}
 80024e6:	f7ff ffc9 	bl	800247c <__cmpsf2>
 80024ea:	2800      	cmp	r0, #0
 80024ec:	bf48      	it	mi
 80024ee:	f110 0f00 	cmnmi.w	r0, #0
 80024f2:	bd0f      	pop	{r0, r1, r2, r3, pc}

080024f4 <__aeabi_fcmpeq>:
 80024f4:	f84d ed08 	str.w	lr, [sp, #-8]!
 80024f8:	f7ff fff4 	bl	80024e4 <__aeabi_cfcmpeq>
 80024fc:	bf0c      	ite	eq
 80024fe:	2001      	moveq	r0, #1
 8002500:	2000      	movne	r0, #0
 8002502:	f85d fb08 	ldr.w	pc, [sp], #8
 8002506:	bf00      	nop

08002508 <__aeabi_fcmplt>:
 8002508:	f84d ed08 	str.w	lr, [sp, #-8]!
 800250c:	f7ff ffea 	bl	80024e4 <__aeabi_cfcmpeq>
 8002510:	bf34      	ite	cc
 8002512:	2001      	movcc	r0, #1
 8002514:	2000      	movcs	r0, #0
 8002516:	f85d fb08 	ldr.w	pc, [sp], #8
 800251a:	bf00      	nop

0800251c <__aeabi_fcmple>:
 800251c:	f84d ed08 	str.w	lr, [sp, #-8]!
 8002520:	f7ff ffe0 	bl	80024e4 <__aeabi_cfcmpeq>
 8002524:	bf94      	ite	ls
 8002526:	2001      	movls	r0, #1
 8002528:	2000      	movhi	r0, #0
 800252a:	f85d fb08 	ldr.w	pc, [sp], #8
 800252e:	bf00      	nop

08002530 <__aeabi_fcmpge>:
 8002530:	f84d ed08 	str.w	lr, [sp, #-8]!
 8002534:	f7ff ffd2 	bl	80024dc <__aeabi_cfrcmple>
 8002538:	bf94      	ite	ls
 800253a:	2001      	movls	r0, #1
 800253c:	2000      	movhi	r0, #0
 800253e:	f85d fb08 	ldr.w	pc, [sp], #8
 8002542:	bf00      	nop

08002544 <__aeabi_fcmpgt>:
 8002544:	f84d ed08 	str.w	lr, [sp, #-8]!
 8002548:	f7ff ffc8 	bl	80024dc <__aeabi_cfrcmple>
 800254c:	bf34      	ite	cc
 800254e:	2001      	movcc	r0, #1
 8002550:	2000      	movcs	r0, #0
 8002552:	f85d fb08 	ldr.w	pc, [sp], #8
 8002556:	bf00      	nop

08002558 <__aeabi_f2uiz>:
 8002558:	0042      	lsls	r2, r0, #1
 800255a:	d20e      	bcs.n	800257a <__aeabi_f2uiz+0x22>
 800255c:	f1b2 4ffe 	cmp.w	r2, #2130706432	; 0x7f000000
 8002560:	d30b      	bcc.n	800257a <__aeabi_f2uiz+0x22>
 8002562:	f04f 039e 	mov.w	r3, #158	; 0x9e
 8002566:	ebb3 6212 	subs.w	r2, r3, r2, lsr #24
 800256a:	d409      	bmi.n	8002580 <__aeabi_f2uiz+0x28>
 800256c:	ea4f 2300 	mov.w	r3, r0, lsl #8
 8002570:	f043 4300 	orr.w	r3, r3, #2147483648	; 0x80000000
 8002574:	fa23 f002 	lsr.w	r0, r3, r2
 8002578:	4770      	bx	lr
 800257a:	f04f 0000 	mov.w	r0, #0
 800257e:	4770      	bx	lr
 8002580:	f112 0f61 	cmn.w	r2, #97	; 0x61
 8002584:	d101      	bne.n	800258a <__aeabi_f2uiz+0x32>
 8002586:	0242      	lsls	r2, r0, #9
 8002588:	d102      	bne.n	8002590 <__aeabi_f2uiz+0x38>
 800258a:	f04f 30ff 	mov.w	r0, #4294967295	; 0xffffffff
 800258e:	4770      	bx	lr
 8002590:	f04f 0000 	mov.w	r0, #0
 8002594:	4770      	bx	lr
 8002596:	bf00      	nop

08002598 <gpio_set_mode>:
 8002598:	e92d 41f0 	stmdb	sp!, {r4, r5, r6, r7, r8, lr}
 800259c:	f04f 0c0f 	mov.w	ip, #15
 80025a0:	2500      	movs	r5, #0
 80025a2:	6807      	ldr	r7, [r0, #0]
 80025a4:	6846      	ldr	r6, [r0, #4]
 80025a6:	fa43 f405 	asr.w	r4, r3, r5
 80025aa:	07e4      	lsls	r4, r4, #31
 80025ac:	d51c      	bpl.n	80025e8 <gpio_set_mode+0x50>
 80025ae:	2d07      	cmp	r5, #7
 80025b0:	bf94      	ite	ls
 80025b2:	46be      	movls	lr, r7
 80025b4:	46b6      	movhi	lr, r6
 80025b6:	b2ac      	uxth	r4, r5
 80025b8:	ea4f 0484 	mov.w	r4, r4, lsl #2
 80025bc:	bf8a      	itet	hi
 80025be:	3c20      	subhi	r4, #32
 80025c0:	b2a4      	uxthls	r4, r4
 80025c2:	b2a4      	uxthhi	r4, r4
 80025c4:	fa0c f804 	lsl.w	r8, ip, r4
 80025c8:	ea2e 0808 	bic.w	r8, lr, r8
 80025cc:	f104 0e02 	add.w	lr, r4, #2
 80025d0:	fa02 fe0e 	lsl.w	lr, r2, lr
 80025d4:	fa01 f404 	lsl.w	r4, r1, r4
 80025d8:	ea4e 0404 	orr.w	r4, lr, r4
 80025dc:	ea44 0408 	orr.w	r4, r4, r8
 80025e0:	2d07      	cmp	r5, #7
 80025e2:	bf94      	ite	ls
 80025e4:	4627      	movls	r7, r4
 80025e6:	4626      	movhi	r6, r4
 80025e8:	3501      	adds	r5, #1
 80025ea:	2d10      	cmp	r5, #16
 80025ec:	d1db      	bne.n	80025a6 <gpio_set_mode+0xe>
 80025ee:	6007      	str	r7, [r0, #0]
 80025f0:	6046      	str	r6, [r0, #4]
 80025f2:	e8bd 81f0 	ldmia.w	sp!, {r4, r5, r6, r7, r8, pc}

080025f6 <gpio_set>:
 80025f6:	6101      	str	r1, [r0, #16]
 80025f8:	4770      	bx	lr

080025fa <gpio_clear>:
 80025fa:	0409      	lsls	r1, r1, #16
 80025fc:	6101      	str	r1, [r0, #16]
 80025fe:	4770      	bx	lr

08002600 <gpio_toggle>:
 8002600:	68c3      	ldr	r3, [r0, #12]
 8002602:	ea01 0203 	and.w	r2, r1, r3
 8002606:	ea21 0103 	bic.w	r1, r1, r3
 800260a:	ea41 4102 	orr.w	r1, r1, r2, lsl #16
 800260e:	6101      	str	r1, [r0, #16]
 8002610:	4770      	bx	lr
	...

08002614 <rcc_osc_on.part.1>:
 8002614:	4a02      	ldr	r2, [pc, #8]	; (8002620 <rcc_osc_on.part.1+0xc>)
 8002616:	6813      	ldr	r3, [r2, #0]
 8002618:	f043 7380 	orr.w	r3, r3, #16777216	; 0x1000000
 800261c:	6013      	str	r3, [r2, #0]
 800261e:	4770      	bx	lr
 8002620:	40021000 	.word	0x40021000

08002624 <rcc_is_osc_ready>:
 8002624:	2806      	cmp	r0, #6
 8002626:	d822      	bhi.n	800266e <rcc_is_osc_ready+0x4a>
 8002628:	e8df f000 	tbb	[pc, r0]
 800262c:	130e0904 	.word	0x130e0904
 8002630:	1d18      	.short	0x1d18
 8002632:	1f          	.byte	0x1f
 8002633:	00          	.byte	0x00
 8002634:	4b0f      	ldr	r3, [pc, #60]	; (8002674 <rcc_is_osc_ready+0x50>)
 8002636:	6818      	ldr	r0, [r3, #0]
 8002638:	f3c0 6040 	ubfx	r0, r0, #25, #1
 800263c:	4770      	bx	lr
 800263e:	4b0d      	ldr	r3, [pc, #52]	; (8002674 <rcc_is_osc_ready+0x50>)
 8002640:	6818      	ldr	r0, [r3, #0]
 8002642:	f3c0 60c0 	ubfx	r0, r0, #27, #1
 8002646:	4770      	bx	lr
 8002648:	4b0a      	ldr	r3, [pc, #40]	; (8002674 <rcc_is_osc_ready+0x50>)
 800264a:	6818      	ldr	r0, [r3, #0]
 800264c:	f3c0 7040 	ubfx	r0, r0, #29, #1
 8002650:	4770      	bx	lr
 8002652:	4b08      	ldr	r3, [pc, #32]	; (8002674 <rcc_is_osc_ready+0x50>)
 8002654:	6818      	ldr	r0, [r3, #0]
 8002656:	f3c0 4040 	ubfx	r0, r0, #17, #1
 800265a:	4770      	bx	lr
 800265c:	4b05      	ldr	r3, [pc, #20]	; (8002674 <rcc_is_osc_ready+0x50>)
 800265e:	6818      	ldr	r0, [r3, #0]
 8002660:	f3c0 0040 	ubfx	r0, r0, #1, #1
 8002664:	4770      	bx	lr
 8002666:	4b04      	ldr	r3, [pc, #16]	; (8002678 <rcc_is_osc_ready+0x54>)
 8002668:	e7f9      	b.n	800265e <rcc_is_osc_ready+0x3a>
 800266a:	4b04      	ldr	r3, [pc, #16]	; (800267c <rcc_is_osc_ready+0x58>)
 800266c:	e7f7      	b.n	800265e <rcc_is_osc_ready+0x3a>
 800266e:	2000      	movs	r0, #0
 8002670:	4770      	bx	lr
 8002672:	bf00      	nop
 8002674:	40021000 	.word	0x40021000
 8002678:	40021020 	.word	0x40021020
 800267c:	40021024 	.word	0x40021024

08002680 <rcc_wait_for_osc_ready>:
 8002680:	4602      	mov	r2, r0
 8002682:	b508      	push	{r3, lr}
 8002684:	4610      	mov	r0, r2
 8002686:	f7ff ffcd 	bl	8002624 <rcc_is_osc_ready>
 800268a:	2800      	cmp	r0, #0
 800268c:	d0fa      	beq.n	8002684 <rcc_wait_for_osc_ready+0x4>
 800268e:	bd08      	pop	{r3, pc}

08002690 <rcc_osc_on>:
 8002690:	2806      	cmp	r0, #6
 8002692:	d80c      	bhi.n	80026ae <rcc_osc_on+0x1e>
 8002694:	e8df f000 	tbb	[pc, r0]
 8002698:	110c0604 	.word	0x110c0604
 800269c:	1b16      	.short	0x1b16
 800269e:	1d          	.byte	0x1d
 800269f:	00          	.byte	0x00
 80026a0:	f7ff bfb8 	b.w	8002614 <rcc_osc_on.part.1>
 80026a4:	4a0c      	ldr	r2, [pc, #48]	; (80026d8 <rcc_osc_on+0x48>)
 80026a6:	6813      	ldr	r3, [r2, #0]
 80026a8:	f043 6380 	orr.w	r3, r3, #67108864	; 0x4000000
 80026ac:	6013      	str	r3, [r2, #0]
 80026ae:	4770      	bx	lr
 80026b0:	4a09      	ldr	r2, [pc, #36]	; (80026d8 <rcc_osc_on+0x48>)
 80026b2:	6813      	ldr	r3, [r2, #0]
 80026b4:	f043 5380 	orr.w	r3, r3, #268435456	; 0x10000000
 80026b8:	e7f8      	b.n	80026ac <rcc_osc_on+0x1c>
 80026ba:	4a07      	ldr	r2, [pc, #28]	; (80026d8 <rcc_osc_on+0x48>)
 80026bc:	6813      	ldr	r3, [r2, #0]
 80026be:	f443 3380 	orr.w	r3, r3, #65536	; 0x10000
 80026c2:	e7f3      	b.n	80026ac <rcc_osc_on+0x1c>
 80026c4:	4a04      	ldr	r2, [pc, #16]	; (80026d8 <rcc_osc_on+0x48>)
 80026c6:	6813      	ldr	r3, [r2, #0]
 80026c8:	f043 0301 	orr.w	r3, r3, #1
 80026cc:	e7ee      	b.n	80026ac <rcc_osc_on+0x1c>
 80026ce:	4a03      	ldr	r2, [pc, #12]	; (80026dc <rcc_osc_on+0x4c>)
 80026d0:	e7f9      	b.n	80026c6 <rcc_osc_on+0x36>
 80026d2:	4a03      	ldr	r2, [pc, #12]	; (80026e0 <rcc_osc_on+0x50>)
 80026d4:	e7f7      	b.n	80026c6 <rcc_osc_on+0x36>
 80026d6:	bf00      	nop
 80026d8:	40021000 	.word	0x40021000
 80026dc:	40021020 	.word	0x40021020
 80026e0:	40021024 	.word	0x40021024

080026e4 <rcc_set_sysclk_source>:
 80026e4:	4a03      	ldr	r2, [pc, #12]	; (80026f4 <rcc_set_sysclk_source+0x10>)
 80026e6:	6813      	ldr	r3, [r2, #0]
 80026e8:	f023 0303 	bic.w	r3, r3, #3
 80026ec:	4318      	orrs	r0, r3
 80026ee:	6010      	str	r0, [r2, #0]
 80026f0:	4770      	bx	lr
 80026f2:	bf00      	nop
 80026f4:	40021004 	.word	0x40021004

080026f8 <rcc_set_pll_multiplication_factor>:
 80026f8:	4a03      	ldr	r2, [pc, #12]	; (8002708 <rcc_set_pll_multiplication_factor+0x10>)
 80026fa:	6813      	ldr	r3, [r2, #0]
 80026fc:	f423 1370 	bic.w	r3, r3, #3932160	; 0x3c0000
 8002700:	ea43 4080 	orr.w	r0, r3, r0, lsl #18
 8002704:	6010      	str	r0, [r2, #0]
 8002706:	4770      	bx	lr
 8002708:	40021004 	.word	0x40021004

0800270c <rcc_set_pll_source>:
 800270c:	4a03      	ldr	r2, [pc, #12]	; (800271c <rcc_set_pll_source+0x10>)
 800270e:	6813      	ldr	r3, [r2, #0]
 8002710:	f423 3380 	bic.w	r3, r3, #65536	; 0x10000
 8002714:	ea43 4000 	orr.w	r0, r3, r0, lsl #16
 8002718:	6010      	str	r0, [r2, #0]
 800271a:	4770      	bx	lr
 800271c:	40021004 	.word	0x40021004

08002720 <rcc_set_pllxtpre>:
 8002720:	4a03      	ldr	r2, [pc, #12]	; (8002730 <rcc_set_pllxtpre+0x10>)
 8002722:	6813      	ldr	r3, [r2, #0]
 8002724:	f423 3300 	bic.w	r3, r3, #131072	; 0x20000
 8002728:	ea43 4040 	orr.w	r0, r3, r0, lsl #17
 800272c:	6010      	str	r0, [r2, #0]
 800272e:	4770      	bx	lr
 8002730:	40021004 	.word	0x40021004

08002734 <rcc_set_adcpre>:
 8002734:	4a03      	ldr	r2, [pc, #12]	; (8002744 <rcc_set_adcpre+0x10>)
 8002736:	6813      	ldr	r3, [r2, #0]
 8002738:	f423 4340 	bic.w	r3, r3, #49152	; 0xc000
 800273c:	ea43 3080 	orr.w	r0, r3, r0, lsl #14
 8002740:	6010      	str	r0, [r2, #0]
 8002742:	4770      	bx	lr
 8002744:	40021004 	.word	0x40021004

08002748 <rcc_set_ppre2>:
 8002748:	4a03      	ldr	r2, [pc, #12]	; (8002758 <rcc_set_ppre2+0x10>)
 800274a:	6813      	ldr	r3, [r2, #0]
 800274c:	f423 5360 	bic.w	r3, r3, #14336	; 0x3800
 8002750:	ea43 20c0 	orr.w	r0, r3, r0, lsl #11
 8002754:	6010      	str	r0, [r2, #0]
 8002756:	4770      	bx	lr
 8002758:	40021004 	.word	0x40021004

0800275c <rcc_set_ppre1>:
 800275c:	4a03      	ldr	r2, [pc, #12]	; (800276c <rcc_set_ppre1+0x10>)
 800275e:	6813      	ldr	r3, [r2, #0]
 8002760:	f423 63e0 	bic.w	r3, r3, #1792	; 0x700
 8002764:	ea43 2000 	orr.w	r0, r3, r0, lsl #8
 8002768:	6010      	str	r0, [r2, #0]
 800276a:	4770      	bx	lr
 800276c:	40021004 	.word	0x40021004

08002770 <rcc_set_hpre>:
 8002770:	4a03      	ldr	r2, [pc, #12]	; (8002780 <rcc_set_hpre+0x10>)
 8002772:	6813      	ldr	r3, [r2, #0]
 8002774:	f023 03f0 	bic.w	r3, r3, #240	; 0xf0
 8002778:	ea43 1000 	orr.w	r0, r3, r0, lsl #4
 800277c:	6010      	str	r0, [r2, #0]
 800277e:	4770      	bx	lr
 8002780:	40021004 	.word	0x40021004

08002784 <rcc_clock_setup_in_hse_8mhz_out_72mhz>:
 8002784:	b508      	push	{r3, lr}
 8002786:	2004      	movs	r0, #4
 8002788:	f7ff ff82 	bl	8002690 <rcc_osc_on>
 800278c:	2004      	movs	r0, #4
 800278e:	f7ff ff77 	bl	8002680 <rcc_wait_for_osc_ready>
 8002792:	2000      	movs	r0, #0
 8002794:	f7ff ffa6 	bl	80026e4 <rcc_set_sysclk_source>
 8002798:	2003      	movs	r0, #3
 800279a:	f7ff ff79 	bl	8002690 <rcc_osc_on>
 800279e:	2003      	movs	r0, #3
 80027a0:	f7ff ff6e 	bl	8002680 <rcc_wait_for_osc_ready>
 80027a4:	2001      	movs	r0, #1
 80027a6:	f7ff ff9d 	bl	80026e4 <rcc_set_sysclk_source>
 80027aa:	2000      	movs	r0, #0
 80027ac:	f7ff ffe0 	bl	8002770 <rcc_set_hpre>
 80027b0:	2003      	movs	r0, #3
 80027b2:	f7ff ffbf 	bl	8002734 <rcc_set_adcpre>
 80027b6:	2004      	movs	r0, #4
 80027b8:	f7ff ffd0 	bl	800275c <rcc_set_ppre1>
 80027bc:	2000      	movs	r0, #0
 80027be:	f7ff ffc3 	bl	8002748 <rcc_set_ppre2>
 80027c2:	2002      	movs	r0, #2
 80027c4:	f000 f9da 	bl	8002b7c <flash_set_ws>
 80027c8:	2007      	movs	r0, #7
 80027ca:	f7ff ff95 	bl	80026f8 <rcc_set_pll_multiplication_factor>
 80027ce:	2001      	movs	r0, #1
 80027d0:	f7ff ff9c 	bl	800270c <rcc_set_pll_source>
 80027d4:	2000      	movs	r0, #0
 80027d6:	f7ff ffa3 	bl	8002720 <rcc_set_pllxtpre>
 80027da:	f7ff ff1b 	bl	8002614 <rcc_osc_on.part.1>
 80027de:	2000      	movs	r0, #0
 80027e0:	f7ff ff4e 	bl	8002680 <rcc_wait_for_osc_ready>
 80027e4:	2002      	movs	r0, #2
 80027e6:	f7ff ff7d 	bl	80026e4 <rcc_set_sysclk_source>
 80027ea:	4b04      	ldr	r3, [pc, #16]	; (80027fc <rcc_clock_setup_in_hse_8mhz_out_72mhz+0x78>)
 80027ec:	4a04      	ldr	r2, [pc, #16]	; (8002800 <rcc_clock_setup_in_hse_8mhz_out_72mhz+0x7c>)
 80027ee:	4905      	ldr	r1, [pc, #20]	; (8002804 <rcc_clock_setup_in_hse_8mhz_out_72mhz+0x80>)
 80027f0:	6013      	str	r3, [r2, #0]
 80027f2:	4a05      	ldr	r2, [pc, #20]	; (8002808 <rcc_clock_setup_in_hse_8mhz_out_72mhz+0x84>)
 80027f4:	6011      	str	r1, [r2, #0]
 80027f6:	4a05      	ldr	r2, [pc, #20]	; (800280c <rcc_clock_setup_in_hse_8mhz_out_72mhz+0x88>)
 80027f8:	6013      	str	r3, [r2, #0]
 80027fa:	bd08      	pop	{r3, pc}
 80027fc:	044aa200 	.word	0x044aa200
 8002800:	20000000 	.word	0x20000000
 8002804:	02255100 	.word	0x02255100
 8002808:	20000004 	.word	0x20000004
 800280c:	20000008 	.word	0x20000008

08002810 <rcc_periph_clock_enable>:
 8002810:	0943      	lsrs	r3, r0, #5
 8002812:	f000 021f 	and.w	r2, r0, #31
 8002816:	2001      	movs	r0, #1
 8002818:	f103 4380 	add.w	r3, r3, #1073741824	; 0x40000000
 800281c:	f503 3304 	add.w	r3, r3, #135168	; 0x21000
 8002820:	6819      	ldr	r1, [r3, #0]
 8002822:	4090      	lsls	r0, r2
 8002824:	4308      	orrs	r0, r1
 8002826:	6018      	str	r0, [r3, #0]
 8002828:	4770      	bx	lr

0800282a <timer_enable_irq>:
 800282a:	68c3      	ldr	r3, [r0, #12]
 800282c:	4319      	orrs	r1, r3
 800282e:	60c1      	str	r1, [r0, #12]
 8002830:	4770      	bx	lr

08002832 <timer_clear_flag>:
 8002832:	43c9      	mvns	r1, r1
 8002834:	6101      	str	r1, [r0, #16]
 8002836:	4770      	bx	lr

08002838 <timer_set_mode>:
 8002838:	b510      	push	{r4, lr}
 800283a:	6804      	ldr	r4, [r0, #0]
 800283c:	4313      	orrs	r3, r2
 800283e:	f424 745c 	bic.w	r4, r4, #880	; 0x370
 8002842:	430b      	orrs	r3, r1
 8002844:	4323      	orrs	r3, r4
 8002846:	6003      	str	r3, [r0, #0]
 8002848:	bd10      	pop	{r4, pc}

0800284a <timer_enable_counter>:
 800284a:	6803      	ldr	r3, [r0, #0]
 800284c:	f043 0301 	orr.w	r3, r3, #1
 8002850:	6003      	str	r3, [r0, #0]
 8002852:	4770      	bx	lr

08002854 <timer_set_prescaler>:
 8002854:	6281      	str	r1, [r0, #40]	; 0x28
 8002856:	4770      	bx	lr

08002858 <timer_set_period>:
 8002858:	62c1      	str	r1, [r0, #44]	; 0x2c
 800285a:	4770      	bx	lr

0800285c <timer_set_oc_mode>:
 800285c:	2906      	cmp	r1, #6
 800285e:	d87a      	bhi.n	8002956 <timer_set_oc_mode+0xfa>
 8002860:	e8df f001 	tbb	[pc, r1]
 8002864:	79337904 	.word	0x79337904
 8002868:	7963      	.short	0x7963
 800286a:	92          	.byte	0x92
 800286b:	00          	.byte	0x00
 800286c:	6983      	ldr	r3, [r0, #24]
 800286e:	f023 0303 	bic.w	r3, r3, #3
 8002872:	6183      	str	r3, [r0, #24]
 8002874:	6983      	ldr	r3, [r0, #24]
 8002876:	6183      	str	r3, [r0, #24]
 8002878:	6983      	ldr	r3, [r0, #24]
 800287a:	f023 0370 	bic.w	r3, r3, #112	; 0x70
 800287e:	6183      	str	r3, [r0, #24]
 8002880:	2a07      	cmp	r2, #7
 8002882:	d868      	bhi.n	8002956 <timer_set_oc_mode+0xfa>
 8002884:	e8df f002 	tbb	[pc, r2]
 8002888:	0d090433 	.word	0x0d090433
 800288c:	1d191511 	.word	0x1d191511
 8002890:	6983      	ldr	r3, [r0, #24]
 8002892:	f043 0310 	orr.w	r3, r3, #16
 8002896:	6183      	str	r3, [r0, #24]
 8002898:	4770      	bx	lr
 800289a:	6983      	ldr	r3, [r0, #24]
 800289c:	f043 0320 	orr.w	r3, r3, #32
 80028a0:	e7f9      	b.n	8002896 <timer_set_oc_mode+0x3a>
 80028a2:	6983      	ldr	r3, [r0, #24]
 80028a4:	f043 0330 	orr.w	r3, r3, #48	; 0x30
 80028a8:	e7f5      	b.n	8002896 <timer_set_oc_mode+0x3a>
 80028aa:	6983      	ldr	r3, [r0, #24]
 80028ac:	f043 0340 	orr.w	r3, r3, #64	; 0x40
 80028b0:	e7f1      	b.n	8002896 <timer_set_oc_mode+0x3a>
 80028b2:	6983      	ldr	r3, [r0, #24]
 80028b4:	f043 0350 	orr.w	r3, r3, #80	; 0x50
 80028b8:	e7ed      	b.n	8002896 <timer_set_oc_mode+0x3a>
 80028ba:	6983      	ldr	r3, [r0, #24]
 80028bc:	f043 0360 	orr.w	r3, r3, #96	; 0x60
 80028c0:	e7e9      	b.n	8002896 <timer_set_oc_mode+0x3a>
 80028c2:	6983      	ldr	r3, [r0, #24]
 80028c4:	f043 0370 	orr.w	r3, r3, #112	; 0x70
 80028c8:	e7e5      	b.n	8002896 <timer_set_oc_mode+0x3a>
 80028ca:	6983      	ldr	r3, [r0, #24]
 80028cc:	f423 7340 	bic.w	r3, r3, #768	; 0x300
 80028d0:	6183      	str	r3, [r0, #24]
 80028d2:	6983      	ldr	r3, [r0, #24]
 80028d4:	6183      	str	r3, [r0, #24]
 80028d6:	6983      	ldr	r3, [r0, #24]
 80028d8:	f423 43e0 	bic.w	r3, r3, #28672	; 0x7000
 80028dc:	6183      	str	r3, [r0, #24]
 80028de:	2a07      	cmp	r2, #7
 80028e0:	d839      	bhi.n	8002956 <timer_set_oc_mode+0xfa>
 80028e2:	e8df f002 	tbb	[pc, r2]
 80028e6:	0604      	.short	0x0604
 80028e8:	16120e0a 	.word	0x16120e0a
 80028ec:	1e1a      	.short	0x1e1a
 80028ee:	6983      	ldr	r3, [r0, #24]
 80028f0:	e7d1      	b.n	8002896 <timer_set_oc_mode+0x3a>
 80028f2:	6983      	ldr	r3, [r0, #24]
 80028f4:	f443 5380 	orr.w	r3, r3, #4096	; 0x1000
 80028f8:	e7cd      	b.n	8002896 <timer_set_oc_mode+0x3a>
 80028fa:	6983      	ldr	r3, [r0, #24]
 80028fc:	f443 5300 	orr.w	r3, r3, #8192	; 0x2000
 8002900:	e7c9      	b.n	8002896 <timer_set_oc_mode+0x3a>
 8002902:	6983      	ldr	r3, [r0, #24]
 8002904:	f443 5340 	orr.w	r3, r3, #12288	; 0x3000
 8002908:	e7c5      	b.n	8002896 <timer_set_oc_mode+0x3a>
 800290a:	6983      	ldr	r3, [r0, #24]
 800290c:	f443 4380 	orr.w	r3, r3, #16384	; 0x4000
 8002910:	e7c1      	b.n	8002896 <timer_set_oc_mode+0x3a>
 8002912:	6983      	ldr	r3, [r0, #24]
 8002914:	f443 43a0 	orr.w	r3, r3, #20480	; 0x5000
 8002918:	e7bd      	b.n	8002896 <timer_set_oc_mode+0x3a>
 800291a:	6983      	ldr	r3, [r0, #24]
 800291c:	f443 43c0 	orr.w	r3, r3, #24576	; 0x6000
 8002920:	e7b9      	b.n	8002896 <timer_set_oc_mode+0x3a>
 8002922:	6983      	ldr	r3, [r0, #24]
 8002924:	f443 43e0 	orr.w	r3, r3, #28672	; 0x7000
 8002928:	e7b5      	b.n	8002896 <timer_set_oc_mode+0x3a>
 800292a:	69c3      	ldr	r3, [r0, #28]
 800292c:	f023 0303 	bic.w	r3, r3, #3
 8002930:	61c3      	str	r3, [r0, #28]
 8002932:	69c3      	ldr	r3, [r0, #28]
 8002934:	61c3      	str	r3, [r0, #28]
 8002936:	69c3      	ldr	r3, [r0, #28]
 8002938:	f023 0370 	bic.w	r3, r3, #112	; 0x70
 800293c:	61c3      	str	r3, [r0, #28]
 800293e:	2a07      	cmp	r2, #7
 8002940:	d809      	bhi.n	8002956 <timer_set_oc_mode+0xfa>
 8002942:	e8df f002 	tbb	[pc, r2]
 8002946:	0433      	.short	0x0433
 8002948:	15110d09 	.word	0x15110d09
 800294c:	1d19      	.short	0x1d19
 800294e:	69c3      	ldr	r3, [r0, #28]
 8002950:	f043 0310 	orr.w	r3, r3, #16
 8002954:	61c3      	str	r3, [r0, #28]
 8002956:	4770      	bx	lr
 8002958:	69c3      	ldr	r3, [r0, #28]
 800295a:	f043 0320 	orr.w	r3, r3, #32
 800295e:	e7f9      	b.n	8002954 <timer_set_oc_mode+0xf8>
 8002960:	69c3      	ldr	r3, [r0, #28]
 8002962:	f043 0330 	orr.w	r3, r3, #48	; 0x30
 8002966:	e7f5      	b.n	8002954 <timer_set_oc_mode+0xf8>
 8002968:	69c3      	ldr	r3, [r0, #28]
 800296a:	f043 0340 	orr.w	r3, r3, #64	; 0x40
 800296e:	e7f1      	b.n	8002954 <timer_set_oc_mode+0xf8>
 8002970:	69c3      	ldr	r3, [r0, #28]
 8002972:	f043 0350 	orr.w	r3, r3, #80	; 0x50
 8002976:	e7ed      	b.n	8002954 <timer_set_oc_mode+0xf8>
 8002978:	69c3      	ldr	r3, [r0, #28]
 800297a:	f043 0360 	orr.w	r3, r3, #96	; 0x60
 800297e:	e7e9      	b.n	8002954 <timer_set_oc_mode+0xf8>
 8002980:	69c3      	ldr	r3, [r0, #28]
 8002982:	f043 0370 	orr.w	r3, r3, #112	; 0x70
 8002986:	e7e5      	b.n	8002954 <timer_set_oc_mode+0xf8>
 8002988:	69c3      	ldr	r3, [r0, #28]
 800298a:	f423 7340 	bic.w	r3, r3, #768	; 0x300
 800298e:	61c3      	str	r3, [r0, #28]
 8002990:	69c3      	ldr	r3, [r0, #28]
 8002992:	61c3      	str	r3, [r0, #28]
 8002994:	69c3      	ldr	r3, [r0, #28]
 8002996:	f423 43e0 	bic.w	r3, r3, #28672	; 0x7000
 800299a:	61c3      	str	r3, [r0, #28]
 800299c:	2a07      	cmp	r2, #7
 800299e:	d8da      	bhi.n	8002956 <timer_set_oc_mode+0xfa>
 80029a0:	e8df f002 	tbb	[pc, r2]
 80029a4:	0e0a0604 	.word	0x0e0a0604
 80029a8:	1e1a1612 	.word	0x1e1a1612
 80029ac:	69c3      	ldr	r3, [r0, #28]
 80029ae:	e7d1      	b.n	8002954 <timer_set_oc_mode+0xf8>
 80029b0:	69c3      	ldr	r3, [r0, #28]
 80029b2:	f443 5380 	orr.w	r3, r3, #4096	; 0x1000
 80029b6:	e7cd      	b.n	8002954 <timer_set_oc_mode+0xf8>
 80029b8:	69c3      	ldr	r3, [r0, #28]
 80029ba:	f443 5300 	orr.w	r3, r3, #8192	; 0x2000
 80029be:	e7c9      	b.n	8002954 <timer_set_oc_mode+0xf8>
 80029c0:	69c3      	ldr	r3, [r0, #28]
 80029c2:	f443 5340 	orr.w	r3, r3, #12288	; 0x3000
 80029c6:	e7c5      	b.n	8002954 <timer_set_oc_mode+0xf8>
 80029c8:	69c3      	ldr	r3, [r0, #28]
 80029ca:	f443 4380 	orr.w	r3, r3, #16384	; 0x4000
 80029ce:	e7c1      	b.n	8002954 <timer_set_oc_mode+0xf8>
 80029d0:	69c3      	ldr	r3, [r0, #28]
 80029d2:	f443 43a0 	orr.w	r3, r3, #20480	; 0x5000
 80029d6:	e7bd      	b.n	8002954 <timer_set_oc_mode+0xf8>
 80029d8:	69c3      	ldr	r3, [r0, #28]
 80029da:	f443 43c0 	orr.w	r3, r3, #24576	; 0x6000
 80029de:	e7b9      	b.n	8002954 <timer_set_oc_mode+0xf8>
 80029e0:	69c3      	ldr	r3, [r0, #28]
 80029e2:	f443 43e0 	orr.w	r3, r3, #28672	; 0x7000
 80029e6:	e7b5      	b.n	8002954 <timer_set_oc_mode+0xf8>

080029e8 <timer_enable_oc_output>:
 80029e8:	2906      	cmp	r1, #6
 80029ea:	d809      	bhi.n	8002a00 <timer_enable_oc_output+0x18>
 80029ec:	e8df f001 	tbb	[pc, r1]
 80029f0:	19091504 	.word	0x19091504
 80029f4:	1d0d      	.short	0x1d0d
 80029f6:	11          	.byte	0x11
 80029f7:	00          	.byte	0x00
 80029f8:	6a03      	ldr	r3, [r0, #32]
 80029fa:	f043 0301 	orr.w	r3, r3, #1
 80029fe:	6203      	str	r3, [r0, #32]
 8002a00:	4770      	bx	lr
 8002a02:	6a03      	ldr	r3, [r0, #32]
 8002a04:	f043 0310 	orr.w	r3, r3, #16
 8002a08:	e7f9      	b.n	80029fe <timer_enable_oc_output+0x16>
 8002a0a:	6a03      	ldr	r3, [r0, #32]
 8002a0c:	f443 7380 	orr.w	r3, r3, #256	; 0x100
 8002a10:	e7f5      	b.n	80029fe <timer_enable_oc_output+0x16>
 8002a12:	6a03      	ldr	r3, [r0, #32]
 8002a14:	f443 5380 	orr.w	r3, r3, #4096	; 0x1000
 8002a18:	e7f1      	b.n	80029fe <timer_enable_oc_output+0x16>
 8002a1a:	6a03      	ldr	r3, [r0, #32]
 8002a1c:	f043 0304 	orr.w	r3, r3, #4
 8002a20:	e7ed      	b.n	80029fe <timer_enable_oc_output+0x16>
 8002a22:	6a03      	ldr	r3, [r0, #32]
 8002a24:	f043 0340 	orr.w	r3, r3, #64	; 0x40
 8002a28:	e7e9      	b.n	80029fe <timer_enable_oc_output+0x16>
 8002a2a:	6a03      	ldr	r3, [r0, #32]
 8002a2c:	f443 6380 	orr.w	r3, r3, #1024	; 0x400
 8002a30:	e7e5      	b.n	80029fe <timer_enable_oc_output+0x16>

08002a32 <timer_set_oc_value>:
 8002a32:	2906      	cmp	r1, #6
 8002a34:	d80c      	bhi.n	8002a50 <timer_set_oc_value+0x1e>
 8002a36:	e8df f001 	tbb	[pc, r1]
 8002a3a:	0b04      	.short	0x0b04
 8002a3c:	0b080b06 	.word	0x0b080b06
 8002a40:	0a          	.byte	0x0a
 8002a41:	00          	.byte	0x00
 8002a42:	6342      	str	r2, [r0, #52]	; 0x34
 8002a44:	4770      	bx	lr
 8002a46:	6382      	str	r2, [r0, #56]	; 0x38
 8002a48:	4770      	bx	lr
 8002a4a:	63c2      	str	r2, [r0, #60]	; 0x3c
 8002a4c:	4770      	bx	lr
 8002a4e:	6402      	str	r2, [r0, #64]	; 0x40
 8002a50:	4770      	bx	lr

08002a52 <timer_set_counter>:
 8002a52:	6241      	str	r1, [r0, #36]	; 0x24
 8002a54:	4770      	bx	lr

08002a56 <blocking_handler>:
 8002a56:	e7fe      	b.n	8002a56 <blocking_handler>

08002a58 <null_handler>:
 8002a58:	4770      	bx	lr
	...

08002a5c <reset_handler>:
 8002a5c:	b538      	push	{r3, r4, r5, lr}
 8002a5e:	4a18      	ldr	r2, [pc, #96]	; (8002ac0 <reset_handler+0x64>)
 8002a60:	4b18      	ldr	r3, [pc, #96]	; (8002ac4 <reset_handler+0x68>)
 8002a62:	4919      	ldr	r1, [pc, #100]	; (8002ac8 <reset_handler+0x6c>)
 8002a64:	428b      	cmp	r3, r1
 8002a66:	d317      	bcc.n	8002a98 <reset_handler+0x3c>
 8002a68:	2100      	movs	r1, #0
 8002a6a:	4a18      	ldr	r2, [pc, #96]	; (8002acc <reset_handler+0x70>)
 8002a6c:	4293      	cmp	r3, r2
 8002a6e:	d318      	bcc.n	8002aa2 <reset_handler+0x46>
 8002a70:	4a17      	ldr	r2, [pc, #92]	; (8002ad0 <reset_handler+0x74>)
 8002a72:	4c18      	ldr	r4, [pc, #96]	; (8002ad4 <reset_handler+0x78>)
 8002a74:	6813      	ldr	r3, [r2, #0]
 8002a76:	4d18      	ldr	r5, [pc, #96]	; (8002ad8 <reset_handler+0x7c>)
 8002a78:	f443 7300 	orr.w	r3, r3, #512	; 0x200
 8002a7c:	6013      	str	r3, [r2, #0]
 8002a7e:	42ac      	cmp	r4, r5
 8002a80:	d312      	bcc.n	8002aa8 <reset_handler+0x4c>
 8002a82:	4c16      	ldr	r4, [pc, #88]	; (8002adc <reset_handler+0x80>)
 8002a84:	4d16      	ldr	r5, [pc, #88]	; (8002ae0 <reset_handler+0x84>)
 8002a86:	42ac      	cmp	r4, r5
 8002a88:	d312      	bcc.n	8002ab0 <reset_handler+0x54>
 8002a8a:	f7fd fc15 	bl	80002b8 <main>
 8002a8e:	4c15      	ldr	r4, [pc, #84]	; (8002ae4 <reset_handler+0x88>)
 8002a90:	4d15      	ldr	r5, [pc, #84]	; (8002ae8 <reset_handler+0x8c>)
 8002a92:	42ac      	cmp	r4, r5
 8002a94:	d310      	bcc.n	8002ab8 <reset_handler+0x5c>
 8002a96:	bd38      	pop	{r3, r4, r5, pc}
 8002a98:	f852 0b04 	ldr.w	r0, [r2], #4
 8002a9c:	f843 0b04 	str.w	r0, [r3], #4
 8002aa0:	e7e0      	b.n	8002a64 <reset_handler+0x8>
 8002aa2:	f843 1b04 	str.w	r1, [r3], #4
 8002aa6:	e7e1      	b.n	8002a6c <reset_handler+0x10>
 8002aa8:	f854 3b04 	ldr.w	r3, [r4], #4
 8002aac:	4798      	blx	r3
 8002aae:	e7e6      	b.n	8002a7e <reset_handler+0x22>
 8002ab0:	f854 3b04 	ldr.w	r3, [r4], #4
 8002ab4:	4798      	blx	r3
 8002ab6:	e7e6      	b.n	8002a86 <reset_handler+0x2a>
 8002ab8:	f854 3b04 	ldr.w	r3, [r4], #4
 8002abc:	4798      	blx	r3
 8002abe:	e7e8      	b.n	8002a92 <reset_handler+0x36>
 8002ac0:	08002d68 	.word	0x08002d68
 8002ac4:	20000000 	.word	0x20000000
 8002ac8:	2000000c 	.word	0x2000000c
 8002acc:	20000014 	.word	0x20000014
 8002ad0:	e000ed14 	.word	0xe000ed14
 8002ad4:	08002d68 	.word	0x08002d68
 8002ad8:	08002d68 	.word	0x08002d68
 8002adc:	08002d68 	.word	0x08002d68
 8002ae0:	08002d68 	.word	0x08002d68
 8002ae4:	08002d68 	.word	0x08002d68
 8002ae8:	08002d68 	.word	0x08002d68

08002aec <systick_set_reload>:
 8002aec:	4b02      	ldr	r3, [pc, #8]	; (8002af8 <systick_set_reload+0xc>)
 8002aee:	f020 407f 	bic.w	r0, r0, #4278190080	; 0xff000000
 8002af2:	6018      	str	r0, [r3, #0]
 8002af4:	4770      	bx	lr
 8002af6:	bf00      	nop
 8002af8:	e000e014 	.word	0xe000e014

08002afc <systick_set_clocksource>:
 8002afc:	4a04      	ldr	r2, [pc, #16]	; (8002b10 <systick_set_clocksource+0x14>)
 8002afe:	f000 0004 	and.w	r0, r0, #4
 8002b02:	6813      	ldr	r3, [r2, #0]
 8002b04:	f023 0304 	bic.w	r3, r3, #4
 8002b08:	4303      	orrs	r3, r0
 8002b0a:	6013      	str	r3, [r2, #0]
 8002b0c:	4770      	bx	lr
 8002b0e:	bf00      	nop
 8002b10:	e000e010 	.word	0xe000e010

08002b14 <systick_interrupt_enable>:
 8002b14:	4a02      	ldr	r2, [pc, #8]	; (8002b20 <systick_interrupt_enable+0xc>)
 8002b16:	6813      	ldr	r3, [r2, #0]
 8002b18:	f043 0302 	orr.w	r3, r3, #2
 8002b1c:	6013      	str	r3, [r2, #0]
 8002b1e:	4770      	bx	lr
 8002b20:	e000e010 	.word	0xe000e010

08002b24 <systick_counter_enable>:
 8002b24:	4a02      	ldr	r2, [pc, #8]	; (8002b30 <systick_counter_enable+0xc>)
 8002b26:	6813      	ldr	r3, [r2, #0]
 8002b28:	f043 0301 	orr.w	r3, r3, #1
 8002b2c:	6013      	str	r3, [r2, #0]
 8002b2e:	4770      	bx	lr
 8002b30:	e000e010 	.word	0xe000e010

08002b34 <systick_clear>:
 8002b34:	2200      	movs	r2, #0
 8002b36:	4b01      	ldr	r3, [pc, #4]	; (8002b3c <systick_clear+0x8>)
 8002b38:	601a      	str	r2, [r3, #0]
 8002b3a:	4770      	bx	lr
 8002b3c:	e000e018 	.word	0xe000e018

08002b40 <nvic_enable_irq>:
 8002b40:	2201      	movs	r2, #1
 8002b42:	0943      	lsrs	r3, r0, #5
 8002b44:	009b      	lsls	r3, r3, #2
 8002b46:	f103 4360 	add.w	r3, r3, #3758096384	; 0xe0000000
 8002b4a:	f000 001f 	and.w	r0, r0, #31
 8002b4e:	f503 4361 	add.w	r3, r3, #57600	; 0xe100
 8002b52:	fa02 f000 	lsl.w	r0, r2, r0
 8002b56:	6018      	str	r0, [r3, #0]
 8002b58:	4770      	bx	lr
	...

08002b5c <nvic_set_priority>:
 8002b5c:	2843      	cmp	r0, #67	; 0x43
 8002b5e:	bf93      	iteet	ls
 8002b60:	f100 4060 	addls.w	r0, r0, #3758096384	; 0xe0000000
 8002b64:	4b04      	ldrhi	r3, [pc, #16]	; (8002b78 <nvic_set_priority+0x1c>)
 8002b66:	f000 000f 	andhi.w	r0, r0, #15
 8002b6a:	f500 4064 	addls.w	r0, r0, #58368	; 0xe400
 8002b6e:	bf8c      	ite	hi
 8002b70:	54c1      	strbhi	r1, [r0, r3]
 8002b72:	7001      	strbls	r1, [r0, #0]
 8002b74:	4770      	bx	lr
 8002b76:	bf00      	nop
 8002b78:	e000ed14 	.word	0xe000ed14

08002b7c <flash_set_ws>:
 8002b7c:	4a03      	ldr	r2, [pc, #12]	; (8002b8c <flash_set_ws+0x10>)
 8002b7e:	6813      	ldr	r3, [r2, #0]
 8002b80:	f023 0307 	bic.w	r3, r3, #7
 8002b84:	4318      	orrs	r0, r3
 8002b86:	6010      	str	r0, [r2, #0]
 8002b88:	4770      	bx	lr
 8002b8a:	bf00      	nop
 8002b8c:	40022000 	.word	0x40022000

08002b90 <npio2_hw>:
 8002b90:	3ff921fb 400921fb 4012d97c 401921fb     .!.?.!.@|..@.!.@
 8002ba0:	401f6a7a 4022d97c 4025fdbb 402921fb     zj.@|."@..%@.!)@
 8002bb0:	402c463a 402f6a7a 4031475c 4032d97c     :F,@zj/@\G1@|.2@
 8002bc0:	40346b9c 4035fdbb 40378fdb 403921fb     .k4@..5@..7@.!9@
 8002bd0:	403ab41b 403c463a 403dd85a 403f6a7a     ..:@:F<@Z.=@zj?@
 8002be0:	40407e4c 4041475c 4042106c 4042d97c     L~@@\GA@l.B@|.B@
 8002bf0:	4043a28c 40446b9c 404534ac 4045fdbb     ..C@.kD@.4E@..E@
 8002c00:	4046c6cb 40478fdb 404858eb 404921fb     ..F@..G@.XH@.!I@

08002c10 <two_over_pi>:
 8002c10:	00a2f983 006e4e44 001529fc 002757d1     ....DNn..)...W'.
 8002c20:	00f534dd 00c0db62 0095993c 00439041     .4..b...<...A.C.
 8002c30:	00fe5163 00abdebb 00c561b7 00246e3a     cQ.......a..:n$.
 8002c40:	00424dd2 00e00649 002eea09 00d1921c     .MB.I...........
 8002c50:	00fe1deb 001cb129 00a73ee8 008235f5     ....)....>...5..
 8002c60:	002ebb44 0084e99c 007026b4 005f7e41     D........&p.A~_.
 8002c70:	003991d6 00398353 0039f49c 00845f8b     ..9.S.9...9.._..
 8002c80:	00bdf928 003b1ff8 0097ffde 0005980f     (.....;.........
 8002c90:	00ef2f11 008b5a0a 006d1f6d 00367ecf     ./...Z..m.m..~6.
 8002ca0:	0027cb09 00b74f46 003f669e 005fea2d     ..'.FO...f?.-._.
 8002cb0:	007527ba 00c7ebe5 00f17b3d 000739f7     .'u.....={...9..
 8002cc0:	008a5292 00ea6bfb 005fb11f 008d5d08     .R...k...._..]..
 8002cd0:	00560330 0046fc7b 006babf0 00cfbc20     0.V.{.F...k. ...
 8002ce0:	009af436 001da9e3 0091615e 00e61b08     6.......^a......
 8002cf0:	00659985 005f14a0 0068408d 00ffd880     ..e..._..@h.....
 8002d00:	004d7327 00310606 001556ca 0073a8c9     'sM...1..V....s.
 8002d10:	0060e27b 00c08c6b                       {.`.k...

08002d18 <PIo2>:
 8002d18:	40000000 3ff921fb 00000000 3e74442d     ...@.!.?....-Dt>
 8002d28:	80000000 3cf84698 60000000 3b78cc51     .....F.<...`Q.x;
 8002d38:	80000000 39f01b83 40000000 387a2520     .......9...@ %z8
 8002d48:	80000000 36e38222 00000000 3569f31d     ...."..6......i5

08002d58 <init_jk>:
 8002d58:	00000002 00000003 00000004 00000006     ................
